(lp0
V5REYrZfsX3m4E3FTwovp5Q
p1
aV9qPEpiKhl0V_RIbYziwJ_g
p2
aVjalA5zHW8ZfY3RSPG7oDxQ
p3
aVY_SKyssv8ClQ_p25lCsbAQ
p4
aV4tJiL2mHKO-erM6xoZji9Q
p5
aVtSiR_cl3GBrTZUbEvkZ2XA
p6
aV8ptBNZne8pV6X01pQBnpkQ
p7
aV_toz5ca6UeEMm-ScLakofg
p8
aVYufWhkZQPC6As55MuXTU8g
p9
aVdP8_X1zpSo3rGarHMyzQ1A
p10
aVBBkQ99cFPNJ5op-7IVqWNA
p11
aVi4CF-bIEfNeYoQ87klS78Q
p12
aV8bMBrj5h3w4EnNyzhfDTrw
p13
aVxkbUCdXRQfKJ-mT3xmH8qQ
p14
aV3zR3Uj23aXY1V3L2qt1t6w
p15
aVLadt7CobMcCFZ8-iC5v0cw
p16
aVOFW2HD4_0T2pExMsmFKx-w
p17
aVMjD_bzVtkAIviFsNFGy7Zg
p18
aV5S8KaaAIjqo2bJcVlMNW5w
p19
aVGTx0p6R141T9poHVXOWVYw
p20
aVA73Dp0lo9s_Ci9NFDqbhqw
p21
aV7RkcQem9jJFxvVU5TSJMdw
p22
aVhZvyXM5wy8O_zC3HiLWI9A
p23
aVP2uPCEBP2VZsApnvEHCgag
p24
aVlNVg4jtfTEIAtOkA_0aEPQ
p25
aVQf83EYNJAXjnM2V-BnZHrQ
p26
aVT1J9PQXqfeG_skaaDV6O0Q
p27
aV6bR_7l9IduBaglZJbqLFWg
p28
aVCAAjkqy2J_d7RerJSVyx5w
p29
aVHHGuAjkU9gQyxpwTZAJ_aQ
p30
aV_AKdBFzkl7GY-daxUCCbVA
p31
aV1cGyzWtfOoDiE8V0OR85yA
p32
aVBsLyCu_lkEdkG42qmvZlnQ
p33
aVKvlaL5wejWOaZayBxP_vUQ
p34
aVHnYIhqta4432AsqGBcSlfg
p35
aVF32TBGo4dVLYxsgllAUQ3w
p36
aV7rqpu7hwyFTEBZOZoNv7iA
p37
aVwRl0dGVhZtFB33bZP9wl9w
p38
aVOyGwvqB3iVPX5CavwuC4tA
p39
aVrKh_Nl5edIB9AevqnDmO6g
p40
aV56WBXPORRBFrQVopB0WSsQ
p41
aV1JbrO_ZoY6a8R3llJHVzUQ
p42
aVKRtbDbqj-bSwLL4B22FcuA
p43
aVOft6C2yq-1AmcqmutODGIQ
p44
aV_29kWahGAxn1QzMmxOCRlA
p45
aV1o3N4PiPI-fHnJnh-U85iw
p46
aVLDAOmVcTQH8-tRYO8oV0ZQ
p47
aVA4kCvILTgfr_2cG0_yGNiw
p48
aVN9Q2HlpqeG2NKbvqJI-REw
p49
aVlhI9JnI3mhtNkntegi9jDg
p50
aVyiN4aDHeW0kBvZQE1bYTLQ
p51
aVp5W1XIMcwYbVlLYyjwMs0Q
p52
aVgMPtAFyWjE_uama1OyDblw
p53
aVNW4mtw2cS1PeJQDK2J_wfQ
p54
aV3nR6JE3hD-D-Fhzr10_k7g
p55
aVc0yPNU-BqS65u0vIKP7P0w
p56
aVZF6gioeymIcLA927GvCZiQ
p57
aV7hlICFMky5fPFxeYRgg__w
p58
aVvNlJsfKKp968CZWr8J5xDA
p59
aVTRRmgX8mySv_y-DOkTZTFQ
p60
aVuH2dNi5nKj31_Xf5dTfXdw
p61
aVFNf9Q2FnB9sI9kOMAgj0AQ
p62
aVoRKyGtUsN5IcRReN7ScUwQ
p63
aVcozegmdHNzyxNqUp3KVKUA
p64
aVu4sTiCzVeIHZY8OlaL346Q
p65
aVyIMZ8XeGJePfYWr7BBNzww
p66
aVQXR-YnHgV0qDyuUTckYeGw
p67
aVAspFf1d9sRaUloPJAHMqAg
p68
aVPqBZ88vOqctCc0fRm2sXQg
p69
aV7YLvFqyFkIZkj5l6tnbqrw
p70
aVmEnJaayTlrP1WYPBWNhkUg
p71
aVEJMrzeE8fraZGiNvdPzsnQ
p72
aVmqiHZYNXnMLaEK87JZOzmA
p73
aVQnspfy4Id5Vyd64FDQ9nxw
p74
aVNN0d_nZ7dX9pS67q4pHbFg
p75
aVK6AKMjAdCSe8xllsbyeL9Q
p76
aVUv7dO93lwpq0MqGsu6-_XQ
p77
aVehaoreB8IzKY8KvRGqxcUA
p78
aVBg8xZT4-NsYLYd-WPIhgXw
p79
aVCPgyfcsyPegLha1ajaSRoA
p80
aVlU5SyqwRlKS7cNj2DrCpGA
p81
aV2CNCcHA9txth664ALX1wvA
p82
aVxTnAUBV7cT8dVLaCk2E6Xw
p83
aV2ipAUIW4kVsE6nl4aREgag
p84
aVX8KLsPEgLe4FuJwRU0tPag
p85
aVq4P3WHwC0lFafwvTlkKMIw
p86
aV30uxz3C85N_QnpDoyz0ytw
p87
aVGiKgsenJg25-2qBGxsg_hw
p88
aVdG-N36uSMeoqCrU27At-Qw
p89
aVsgmzN_YnOPtHAAfGlhc9yA
p90
aV6AV2oHINgc7LGNlJlqAXUA
p91
aVAKQbrvRBZvU5kB9Ut4gVkg
p92
aVcAX-srNrvlifjfov_jpQ1w
p93
aVOY1G_vhUYJJ3HdHfOZ2wrQ
p94
aVvNEENSaRjKkQfuKoxKN_VQ
p95
aV3nDxqHvf7L5AdEAAeMaQAg
p96
aVYVlNo_aIX0CNp4R7ZAKbFg
p97
aV4m7JeLnlv69jgC2nenPiPQ
p98
aVp1CagWItb9RwQd1WL-ilwQ
p99
aVmUONuCWBKukMO2uyVxLY5Q
p100
aVFzvN6d00RNmLSJy2UMKuvA
p101
aVN-COeLWbWoWNlDkFt0EeGw
p102
aVbrMkNXBaa2aZWMTjDV-9ag
p103
aVarGo97Zk7YoHbFGKDFUFKg
p104
aVZZ8sAXHb0gX-c81Ea1M3OQ
p105
aVKLptkOv3OiNSTU4unZv9Sg
p106
aV3qrfY-XCUKVyrO5T6GskqA
p107
aVMh7C6p0KsuZLCB0vjrPgbQ
p108
aV2YA_V5NMOQ3vBwyMKtQ95Q
p109
aVJHrZlJBq8QNdugfmxug1rg
p110
aVBYc5IFQPq-PLVXnYjDp6vw
p111
aVe0Vvrs1M-oMhNBg_8uc6ZQ
p112
aV1uH4zHOUSzaWFzWqsVsQlQ
p113
aV0GYM_KIMzwH_CeL6S279Pw
p114
aVQF8hmN_g6n0BTlLJ0tT9Hg
p115
aVZYcBEhCSfbLOUM9JbHB9FA
p116
aVLSxHsjO_CNbH-NE3lvwKaw
p117
aVts4ZmG1Fde5UfQDDskR5eQ
p118
aVjo-KUnLZs0M2RYIvi8-DPQ
p119
aVNG5qynmV0kzxQMFJG7mhEw
p120
aVAMGe9WK6bxiEkTYNj_cx0w
p121
aVJUiIEt5wW7ImwOdpEc-r0Q
p122
aVDiSARzaWBeNyB4oU047TcA
p123
aVGgjzC6Ki7i4i_RG8pPVZnw
p124
aVI4q_mNQTKVX_EKbVAh8pdQ
p125
aViuIkzvQRb4DVWOMhE4GI3g
p126
aVjDqaz1jKdeWk_fTVCzc1Pg
p127
aV7Nz_04fXn8L-u5L6hyLGvQ
p128
aVxZfPdAYeimiruXuGR4nSUA
p129
aV6VsoOWTeIWmOxMp2Mect3A
p130
aVGp8_vPUZBncqy4Fwc8ga7A
p131
aVMKmxhIHTdJduU0FFMRdfqA
p132
aVKLfGPkaaL4fV0_Dk0ZWchQ
p133
aVNQN-ERs976mbnP6rkMwKtQ
p134
aV7QA9AjMvylQLMButvmoqnA
p135
aVKbdyidaiA4l5IS0tJAM31w
p136
aVgRTEQPvX3s1WzFhOPNbVeg
p137
aVYbsnQgu_3OmNYsCMXegeHw
p138
aVBlw30ULdFKSOgCmf9lfGLg
p139
aVg93ECYDp2JB85zSVLWgK_Q
p140
aV_QkGfsQaQbuyUf-hy_2muw
p141
aVlKom12WnYEjH5FFemK3M1Q
p142
aVYjJnGaqvCpxspBLxXrOA9w
p143
aVQEJgZqn_jYMvmkHaY8NKVg
p144
aV2jwpM5qhFCf8rpW1LeG7lA
p145
aV7U73RqIg6JA0WThxWUV3uA
p146
aVDkEOy5-hSds5Y9RvxMzCVg
p147
aVTeaOjHwZmKYlD9ce1l-8Ug
p148
aVqThJY-H6Fo8HvfdIvwrjiw
p149
aVS7ECG2HNltSWFo1FcFTwFQ
p150
aVWPlanDoQbwZGEB2CmjAU8A
p151
aVrzByiKaj-bLeLz-zKNBQdg
p152
aVcNz2tTTAPmdeAq6HnGeo8w
p153
aV0-kqF27U3eBsSDtlm986Ww
p154
aVaNmMmHPZnD_8WiPdAd5WqA
p155
aVk-zdOw1KYrwEMoud1MhFSQ
p156
aVd6zooCvFxThM1SGye7JJfQ
p157
aVHKExCPp1uxyQY1jlfYAhkA
p158
aVvmR1bRA2liNwwxsUKS1k3w
p159
aVqfcdMhm1Ff28JHVpHca20g
p160
aVo47aY911-1rK9tHeXOWxFg
p161
aVZ-6QSR2lC-opp9l6HLYG_w
p162
aVv43qggsvaezDlZSC_IGJIg
p163
aVn1Y3fGa5uYbY6ABBqhcffQ
p164
aVTdc2v9DBRRYeG2P_h9OvRw
p165
aVCg5hUSWUwFImqO4beH1Zyg
p166
aVHQhy9jCF-GBb9x-xhJ1rJQ
p167
aVDRIyvsa8LUaPNhAMmKdjOQ
p168
aVIKCVtAEzYNDENgGdb9WW5w
p169
aVJ5JzAUd2wzyArZ-qHT0A4A
p170
aV0FSH-6mRF7DKjeI98snxrA
p171
aVOY1MdIc0J3BB7ZUJ7__Bbg
p172
aVzWFuGjtmzekVBTL0muNsXw
p173
aV71ONxJtmDNDiJAtYHK-0RA
p174
aVQYlhQ9ivxXFSD7dE_1cy5A
p175
aVnMUSAPBxlvR8PBPDEsV52g
p176
aVnVqOTTfDiu12xsQtFTO7_w
p177
aVRUnq8jOzySCpRa5X64FgJQ
p178
aVN9JASBwB9kWtK0_EjTa1nw
p179
aVgxi-tnX_ze-VTYAVSyvEpA
p180
aV5qtc1s-TKdgzPccKwY4SRw
p181
aVk2wKGAnlSb4n5WT694GcTA
p182
aVpHSHm72bwR09Mt022CVvrw
p183
aVWLixYfXWO1Q0b_L4PsQ-5w
p184
aVtrioKWMz0NsM9v4cqmUQkg
p185
aV3n_s_8CndMK7jfZsPK2INg
p186
aV4CXnWcTTgwBkkcQT6_6ppA
p187
aV0QThBvFYadl5_t4P_rKd8Q
p188
aVDTTOMeTryTbegANpF4JPsA
p189
aVo6UJLrSQGZzUSsfCxVQryA
p190
aVZNdV9ytExuxPTXSN8i2xhw
p191
aV0u2xwNy07-z3gv0tpuJX2Q
p192
aVaY8xiGLpTjIkz6FAJbCy7A
p193
aVG9LyIc5LgBNM_zF8BJMhNg
p194
aVFO2SNKF9I8mvTCAvbClJZQ
p195
aV4Oqq6x7TA5TDvwwnckvCGg
p196
aV8mx_TpMhpFLdQi_K5aPdOg
p197
aVjO9gbncmBCExL_FvFKU5Ew
p198
aV2kE_CUc6tUR8FU5bjAO_Ag
p199
aVQT4ax7JkGZma8oMy5j8t2w
p200
aV7Ny6x4wX1JJLqdVeKQ1JYg
p201
aVyMjBSQDldMVlR8E7wY0NUA
p202
aV55LdBLn7CXbWwhD06Zn_0Q
p203
aVTWk7hL6yCx5mYcs0Ys-usQ
p204
aVoPvYovnl06fy5W0e51zjMQ
p205
aV3mbexLtpZcopAsgWmrJjVg
p206
aVtdFv4HMVEuqebqjHtkZVdw
p207
aV2XUJM063C50TLfK-s902cQ
p208
aVKE7Uq1iXOQVhsPIzE800Aw
p209
aVmLP-jIIRdoaYM7fJqqFurw
p210
aV2X3gsHAStlvhAQDOvOxEoQ
p211
aVhqAmmu4_vMGFSZwGauMAUg
p212
aVgndb2XMDHYI5OEDvwEKwaQ
p213
aVKF1ngA96RBiRM5h8V7IQ2g
p214
aVgFsiHkTKeQ3Vt0o3Bs7oXw
p215
aVXJfvPt-8f-6d5Foaz_HYLQ
p216
aVz4CYPDxL_L74GnaD35a9Yw
p217
aVi1t1vBPEWkjPVEW9OoDH2A
p218
aVlqHk6vmnSoTaZwMLSfq1MA
p219
aVTr8TJnMoSgBvfZvmCx9-eQ
p220
aVZvEJiX8HBIForfbHOfqpmQ
p221
aVOEDgpWG0PGNJcY3aK1OXcw
p222
aV6eBYh0NQ80cCAmC4ajlKuQ
p223
aVw4u0y6NEPtV98SGG4wOKnQ
p224
aVfPivHoeKNFhPKZEKFeoIHg
p225
aVuEqkWCzfywBb8hCHhTquIA
p226
aV9eqZNBLnNycOWQ2wQEwulQ
p227
aVqHseX2NHeUUedIgs_VasZA
p228
aVxu3cVLDeZ3RLJFh-IY5DGw
p229
aVz_RTK0MaxaRHRQ99hDL2QA
p230
aVS74fSVSCPSdWtEkROcVYtw
p231
aVEP05pjuysVWn49yezbbusw
p232
aVvHJiewL8K7QcDlm4qDR6Cw
p233
aVYEPMbsrZrp_Y_d0zh1Roow
p234
aV7j4JCwpULz9oYb2eQb2dNg
p235
aV2XZ4g_ps_H55CmxFs4Pu8A
p236
aVHVCSprTj_USR9HxIeoffZA
p237
aVqrcAGkBi0Qhg0HIfUJBDhg
p238
aV30Bvo-tEfvh2KOTLQg6FZw
p239
aV575BoZY8tDPcfSRcdsUNLw
p240
aVpZLOwjgfDmoOcZJAta7aFA
p241
aVVaQhUU3P4Z5A3oYPsEMbkw
p242
aVX-aqEYlXcWQj0fp6aGDP8A
p243
aVWkUTBoFgS-8jg9eV-DUkqQ
p244
aVxH4EuOcHpOJdbHUoJNfyGg
p245
aVT3DcIhsOy74mmmtLmi-X3w
p246
aV1hDSdypYCwmZbmKY6MECxA
p247
aVv50-nvBCZNf7nCNbyUlQLw
p248
aVNj3DwfsDAwogVyFrGKxgnA
p249
aVq5MtvIuYlyndGb6e3em1xw
p250
aV3kBa6YUwQP4A8CSt_EApIQ
p251
aVdDLRhywKVjnSIFe4H5tu_w
p252
aVbKj_nnb2wyXduNoFXDeR9w
p253
aVYBddInm3xP6k9iOowm1EHw
p254
aVz7qIqoGjbb-CoIG7Z8KtWA
p255
aVo7aBPJhTR-R4TccTSfu-Ng
p256
aVLmYBebTFfft94uYljKptgA
p257
aVVVTrM-J-3qSQv0mGJF5fbQ
p258
aVX__mjN8mTACUdp0Sy806hQ
p259
aVnkS11S4W9c6MR-dexoJhig
p260
aVusFNFsaaHFxEbnBO4FaFHA
p261
aVRzw3_l2uDv-OSaHdPCJgjQ
p262
aVog3pzv_PuT9cSYbiYzoB2w
p263
aVkxAQGy2ZpguB7zn8Nqgb_g
p264
aV9p4oekUddRG-ZDxUzYCEGw
p265
aVwSwkjQXQsWLQHa6AvFr_RQ
p266
aVGqBP4UM_z2BAJz_ZUzdecA
p267
aVAV_o0cVmufE1xq8DUlX14g
p268
aVfMdnlYyN5EMhafyE3dGTFQ
p269
aV7yZyfWTmhd5_OmZfM3wjEg
p270
aVi8lL-Jnwl7VjliuLakx0JA
p271
aVrLZDtOjCPhXZx1ldZKFzJA
p272
aVGwcWB_uDN6ppuk_V8x7iww
p273
aV2wGkiIpZ_ho3AchbotRQfw
p274
aVr35uf3EWEfpMo2ET98SPnA
p275
aVj6BfGByroCB585NPUnIHBg
p276
aV_X8Hh_lBn11s2rhEUyhrUg
p277
aVEhlOUjd2dh52SV_XfoORSA
p278
aVgo623pgRx2nfIpsV4ePHXg
p279
aVBoTb3FqOsJaFe_koVfyGbw
p280
aVhpzqGatuwaVra2ayw7WWrQ
p281
aVW0wraOfAWQj46ehDjCTeHw
p282
aVldGnkfXjRNAxRP9cizgr0Q
p283
aVYVYHX7RCPjCBqEth2CS91Q
p284
aVcbddL2q8uRA38RwycB0FJg
p285
aV0vwquUvc7JupcCMjYEiKWQ
p286
aV5gXk0hdWrnJ-4hwTL5cIcg
p287
aVrXKzE4Iraz7vGWovWW-aBA
p288
aV_C-KsbyON91RH6cWKUfT5g
p289
aVf2FfutZhb4F-m1Ob0EdYaw
p290
aVoteTUg7lVM1CEFrq2Z8nLQ
p291
aVo-FOHyhRfysM5-4HDErP2g
p292
aVrIj7fC2wwRr_2iVSIAtbQw
p293
aVG-zBjYkBAqNTHWqsvdq8Ew
p294
aV1xEFOt8ArF0k4cpqWUk9gg
p295
aV9Lu2VvdAPswV-RRiQFfXXQ
p296
aVwDbHi9749cEhJTT2sttHBw
p297
aVG5qOZI12XTSowKZzlq_5lw
p298
aVoiv2xp6xWX8ZLgrKDsKdrA
p299
aVPSXuK4EBNINy_6X8hcTvlg
p300
aVfY79hLjygu4zMtzE67Y4Xw
p301
aVFQXu06x5D5huxPbK04DItw
p302
aVBJz2p9TJ6t9Po4TT0GeHFw
p303
aVN7iOez1IbRc8wErxJLt5CQ
p304
aV0vAHRd4Xlsdx3fHV8JCRBQ
p305
aV50KEvLtQl9Vv4YE1vs681Q
p306
aV85iB_0J9lCRI7jRtmsAlQA
p307
aVsTmHeHv-4uZRRne5jBDzvA
p308
aVXgkTmVrlHHO5g96AfOAfpw
p309
aVhUHIahAcew5i39D_6ZqEmQ
p310
aVJmdgFq9sgXUIzeqalwrTRA
p311
aVZKOfflWm-dNwuFUuFNOUnw
p312
aVicco2swWSWYyItdI_ktyvg
p313
aVDId2r0a4C2ixCbuLApxx8g
p314
aV5fCrdm9cVd8AphdRQcZLeg
p315
aVdw0y95zD-ODAavckvGPP9A
p316
aVAyH8VVj9CvGRCoCVsk-N5g
p317
aVLgvarcLVy6h7WiPKMRzz3Q
p318
aVApn6Qly16cIUxgB1dYUvjg
p319
aV7wMB3wMbOp0gq3l6nHfOaA
p320
aVdDW4Ou_cT1aBMA5JcRuCSQ
p321
aV9R5HJYxWadtirp3Lv9Di9g
p322
aVM70Jr9yUWCDfoTsZS3uq7A
p323
aVIJYqKCfeM4ePy7oqxSah7Q
p324
aVYS1XX9AONq2hdBbU3T-uGw
p325
aVgkR_X3INE6Rr-TuM4ynhzQ
p326
aVPerap0eAyCbUx4r4rQTSnA
p327
aVELlk3Vol0lPKzwHxp-MoAw
p328
aVA21FJqt8jIE6w0hdzmvnmg
p329
aVu-A9gv_Q8CwLgjK8nxFxbA
p330
aVI_vzg2V92U7wdD61tvGtpg
p331
aV5OV1bavavdsYyfeBRNiOeA
p332
aV1pSulg40hoGWWTMivqoaew
p333
aVQmNrHxN7UahtdliH_kAuUg
p334
aVY-bFPmf15jvrE8ZP9OCTgA
p335
aVgRPDzmMU_0pQo7LyxrZ2Lg
p336
aVlROJiqgLEKjYcI07lVNqwA
p337
aV7FxdbDj8smpkpmmgyojIWw
p338
aVWuTdb365xF8kY2KAu6gm9A
p339
aVWXd7r6Yvjxhyo1L6R3lQMA
p340
aVje5h9jV38Wpist76omY_Pw
p341
aVF6Ujpp1Kh7L_3uUfoUsTlw
p342
aV28UWP-8hZ_-6klybRdzqEQ
p343
aVBtcxknU-6axQwOhXvv9xkQ
p344
aVizJvc_MNAo7yngMEC03Mwg
p345
aVhzumXofKoqICLsHETI1LAA
p346
aVRHxhM0GLk2iTUsOINNzkqg
p347
aVVnS3kmAmRyHeN9_lMPBp0g
p348
aVnGCkc0Pr0TK11QAlXmofAw
p349
aVGUriQoD_GHo6DNJlR1_CrA
p350
aVw-YZ755_a3SswPSeUwCdSg
p351
aVykwGLizkYXRsYy79kDFAKg
p352
aVerxmOSNUvDCmglakNyWfKw
p353
aVoqLPpDP4TIaHSRyxR4Rqdw
p354
aV96puuUqlMC8INO36uLi0ag
p355
aVRMnmALvhP_hzu-7iHz0EXA
p356
aV6fQXFkkw2BUARDa0EzsGnA
p357
aVrhwKe5TjDoXDCHRyxhxZQQ
p358
aVF4kjKxXXyn3e-BYVb1mWcg
p359
aVesF6vzW_Owwxj3s5I6nlvg
p360
aVECXHwaJW7Lc7qDlH89Syaw
p361
aV1ofeAP5vdjnOSeO5S2pzSg
p362
aVWSAN2er3DhaZ8ybNStxCbw
p363
aVE2-h-zPbjdty2EivRoqIaw
p364
aVWuDmJ54TYaQCtwpOfWmRqg
p365
aVHdnx6cZBo0JfZopnQDWVYg
p366
aVF9IJ3EddoyW89O0DFikPTQ
p367
aViattM1CQ8JfFm2L7-lDifQ
p368
aVt6LKeb5gNSeqri1JqOPZow
p369
aV3JyqPFOCUHFczVSfiw518w
p370
aVFmBKx7mv-jdh6KJ7Vq2v5w
p371
aVp747aVZiQL7H3Q0z-sMGcw
p372
aVdWB0HT1nXQ2N8n3bvPKJuQ
p373
aVeva56motCJcevOwKzyQO1g
p374
aV4l56EXyCWwPlPXcX9qq-jw
p375
aV9-lFwrePtcGd6tnRSPI9bA
p376
aVLtf3TUXESd0V9emwx8NXWA
p377
aVKA82PiNoKoK3v_1ljFuFWQ
p378
aVz0nVjbfDw8eb7N57HWNg8w
p379
aVE8duZ9YKVLn_n75lYY3Hyw
p380
aVGvCblda5MdYBqNFBUlHuyg
p381
aVLCNc4r6LvVs-JBmfQYAqbw
p382
aVwE8OljxUdpI8UbhGay2Xgw
p383
aVHWmUHzxX3JvXkW3qh0SUng
p384
aVv61dL5IvtgMwYBDNopvPYw
p385
aVRp8D7pO3iTcd7zYV8G93yQ
p386
aVRMekqD2-hGWHCjXYvp7CSg
p387
aVl0pf71mxpV1f_po1W5w1Lw
p388
aVFQF7F9U-_TCNIwtsOlbV1A
p389
aVkWwm_fHthKL-xIykOrR93A
p390
aVZcYBeh-_ubSsZLJA97PSLA
p391
aVO8LGIntnNi4tgMyPQT2myg
p392
aV88wGoNiuZlUxpyeUhwb5hQ
p393
aVGYuRMJZfWMg4SZD5RfOSzw
p394
aV_dqtEOTelXt9tfmP_9Ar6w
p395
aV3rf5VUEu1jlU2-EdiRmIBw
p396
aVwddTf6T2PsrWJy2u35FaEw
p397
aVO5MzWfMWDeEwkzNVeKdCfg
p398
aVgXzQb8auHnhNxJ9EF2F-tA
p399
aV9RiC03-rBMtulA3tS5HUZg
p400
aV4ggOHxvlxnF0a00hDDVbnQ
p401
aVOXrFWgoz533T8tMRemkiww
p402
aVHXO83D4b_LzkDQEQIYB_XQ
p403
aV2To5KDQepjSUpdA5oPPRog
p404
aVXRgzduso-c2IcF2wndeEHw
p405
aVDQmEQkOhR4AwifvRPKqz_g
p406
aVGz76BIuluMYH2Z7ZyZljMA
p407
aVUdE2E77qVQRLNxwSy9SJ3Q
p408
aVxOG2NIFCsjBrVvWm69xkvw
p409
aVjY3wLSOmKcQTB3AjMHLpzQ
p410
aVFV5o9VV0yTU2Kt2bmjlHbA
p411
aVnjmcKc7_7evWjUcrutdRkg
p412
aVGE4ayzlAHlTJEYnRAojZyA
p413
aVXSKvC2PfnTAXCAxGQDhOJQ
p414
aVnc5uuDeM3EA9WJycGDeg1w
p415
aV1Bc4KYox4Fux-aLV4OfFnA
p416
aVAB6xAAxRRVS8tJgbW1aphw
p417
aVRBwAfKwvWcZ8NY7zKbzYHg
p418
aV93otbGHE0s0m-lU1osvg9w
p419
aV7aZf5c1UNotq4MabBXMZLA
p420
aV0iWPGjWRBrLasX55aJRdOg
p421
aVLyng0kiDp9rz6BFrl3B9Hw
p422
aVkxXuthvJvKZ_mS5UA3JrLQ
p423
aVFLy12rk1O6hpxuYzov9m-A
p424
aV7LlND5b0bjWylNBNQ-oZMA
p425
aVCkVeYI6HpUmuZ87D6K-i3A
p426
aVgDQlaDRAjsCx2p_p6oJLjw
p427
aVmX9wWpoz1x6-snTvxlIOOg
p428
aVQrbS4LF0Iu5vApGAJLNzCA
p429
aVoOo7b2D2uHCOsy9Xczf0uw
p430
aVxONNOYgT5BBJj_EVJBMghQ
p431
aV_-W_hRQRDEqVdO1WKGa-DQ
p432
aVnF5TXLMmC6IJgQxE9CEZPw
p433
aVDpBYX9W8hQzYqVLXntFetw
p434
aV3Kcq4_6RAhltAO6ZVgVygQ
p435
aVYZItTPlVWeq13bfAJtT2-g
p436
aVS16YsO21x0MOHWWhN5HxAw
p437
aVG6WGIx0y85tCI8wCxTFGXQ
p438
aVaHVhlCvmlNnnPf-LgclNNA
p439
aVVVitum45kCla5xkyclh4uA
p440
aVzxSfGIhK3hH3vVz_pS5eaA
p441
aVp4t_COtriqckF35I52958g
p442
aVLotwXDcHQmt4usltEvw_PQ
p443
aVgITBefKO65DKNcCFQp424A
p444
aVpHDLRIG2Xu1_1mkGAbyEmw
p445
aVfmv6aWk3IJE-gyEr6ZfpTg
p446
aVdFIeUXVsZuOsNCPPjPAdxw
p447
aVuNzg9P7p-7QBNp47U4koEg
p448
aVuRNQ4z2QQPX7tqWpMjiuTw
p449
aVrOHLBGBcWzlxdvNI6squgQ
p450
aVjpOT1ctnCzl-zWXR4Uyu1A
p451
aVXT3dn-9UsGhiEy-_ZU_M_Q
p452
aVGDWZh4LMDiUXHcZV3XJRww
p453
aV1Vbt1GsmtQm2dkC4A2L_-g
p454
aVbUDT4MNe0Gapt6pq4w5wlA
p455
aV8xrwjD-Udv7cm_emVcVo3A
p456
aVJl-NFBNJ0PeIAfO_bDLojQ
p457
aVJl-lJisnmsy8BCV0Pif4xg
p458
aV8mpIro7yAzGIlFZ4oVowBA
p459
aV7TDAgfGK5duI3FoEFNTStg
p460
aV01I5pFCvJrrGuY3A-KoNIA
p461
aVEl6Bum4I-0VWJRgzbtscJQ
p462
aVWWYFK5rTkQZMOBaRFP51Xg
p463
aV5X1stJTur_paJFZ9TTuNIw
p464
aV4_43zqNDdn7icwxlgHgL8g
p465
aVaAkoJKozYZEyBx58wQ-UrQ
p466
aVHjCCyjPiqg_cRMdwEzODUQ
p467
aVcChJhpiljARaINk-dyXGiQ
p468
aVMkLlb2944GtK07wy9u_wbA
p469
aVBpU9-wcOWyKcVtkvnfRazA
p470
aV1V3fj_J0242-2PZJA6NYSg
p471
aVoxb73l504iA68bWdHqymHQ
p472
aVMv7N0bU56dhtoDP-m2JOow
p473
aV9WTeG-SK2-_Ets4NtRkqMw
p474
aVoP0eUhf44jU71-I8DwKU5A
p475
aV8CjI8nebSDB5aINJc3dLwA
p476
aVdil7Fajn07B9e_msePW0nQ
p477
aVnm5yx8yvJNJYVjaRPwjnsw
p478
aVDOnn1M-8V1_iegwmzQoflQ
p479
aVwXNHLkDkh0HKGJeYVnpafQ
p480
aVJZ4ZRdRSllhuAt94tFCH8w
p481
aVZ5LyFZUazPQ1x_i6HsS3vw
p482
aVnk7BE6tOEdhNcbQcaEtGCw
p483
aVg7OwoWQ_haDYnfmhCYMvSg
p484
aVA4F6iwYVuyKbvlroDEA47A
p485
aVdAcaMSkrpYUZocqrLvOzRQ
p486
aVcPYdwElCHVU794t-Cs0ToQ
p487
aVxEt6imdvYi-avmAp3norRw
p488
aVFIxZW5OjfBotUouYzyYSjw
p489
aVt_EiW3FlMnFTHyoeVU79xg
p490
aVXY5r7aptxnh-Q-OdVNk1mw
p491
aVPeATTp15Y_ExaN6mR1dmKw
p492
aVuNMQV-r1nO5dfGSGnVTFUA
p493
aVtUeYSmiIQn0WG9LN-qRLKg
p494
aVp7JJ9fCP8QP3jN7SyOTtnQ
p495
aVuDOVASe87LwFFl3Wau5AXg
p496
aVzRN6HzfkPS1REtGiZ60Pvg
p497
aVMSX-vRTxCmKLNITfdGEiOw
p498
aVzLFxAncbXi4xADAvZV471A
p499
aVbFJ7deZsWKgFF1oyPIDP6A
p500
aVO1ird5yRyuDFnOmYu90OoA
p501
aVM9JpXoyxm_ZFY1zVmHgwTA
p502
aV9GWfMAuAOlkt4MAZ4eZjlA
p503
aVudl3Dd4UrUEEAxhuDwnmdw
p504
aVS6dARuOrrOXd4xSiTHti8g
p505
aVBl7P1_vtiTfq6fLsEX5Z5Q
p506
aV7rLoG6F6kJYE_gPppl8_5A
p507
aV0pi1DQ3N8gC6jhdHfDWEMA
p508
aVGEs1MLY7IbEupJjytdKyqQ
p509
aV7bSE9GOvftLyvwvyz9XJoA
p510
aVkolFb44M7k9c0-tZL2D_Cg
p511
aVXQszdAN4UqqN7OiO_qilxg
p512
aV1fMXFNFwZEtTy9p8sEmiNw
p513
aV9X3XAKb51B4meUDC_NFnsA
p514
aVo9pydbXW9aT7Hry_z8wbeQ
p515
aVZJdOOIubTizd1eqECkeK-Q
p516
aVb_xFN9mtFWHUbny-GoiErQ
p517
aVwkP_fSZ5w6S9ZQaAFSQ9rg
p518
aV9h8ufGEG_kUf_H3Lq81veQ
p519
aVMPLhOV-JbmntkbcXMyCODg
p520
aVdsN2yntj3IGJ46U0x6DvwQ
p521
aVnxAo0oDgsNlduzUuuUL4Fg
p522
aVuBrszqceiTByo55osdyXwg
p523
aVKwfKAnIRcLFXotqVsR-6Xw
p524
aVrc9SfYli96cnlPDMyJ7hyA
p525
aV24ZF_CY04CplqUaOu7U_aQ
p526
aVr6YlsmM53fDwbRNlNl-OUQ
p527
aVMrh6EoDcsDWmvWBPmK7ncw
p528
aVV-xGtEOnnmmThPoP6HSJKg
p529
aVQ_2DxyQ9nHLRdYciJaNLHg
p530
aVNy3fbYH-tFnSX9bvTQRvfw
p531
aVLhfKAGpQ12pgvQRqg-2wmw
p532
aVYlgtEY-SRQZZkPT54Tdbzw
p533
aVvGCAzbPIcZNkqNkKBbh4Ow
p534
aVjUxLgiiYKnsM238eUZUqlA
p535
aVxcmmTXhuMx2fZF2Bt69F4w
p536
aVYxauC1iB9ZU4eLjbEcYpxw
p537
aV4C2anQCXmR88Kz0Y3FO7Ww
p538
aV2Ezp_HYCIVE-h7hpBBvtxw
p539
aV9CcUyTF8NAkl1bd_eWX7gA
p540
aVhF1-dtY_oXfngC8h2mY4qg
p541
aVuxRBduJIbkY5FFfJCVVdVQ
p542
aVih_bb1SaYvsMYfdykhYh2g
p543
aVIabd_rGdOvdpySBeluFs5w
p544
aVobIyz_tSFHyLWCwINk8_3w
p545
aVGGTts8DZKPebJwqsDQDBKg
p546
aV9_B3nY3KlHW1WDvOeMk9GA
p547
aVYgO2v1VNtbPA7zgp0szJXA
p548
aV1MrJJ9tyNyfFrxaNZ67xFg
p549
aVS8urdN6ACnRQUm-7o9An8w
p550
aV2-Y-kNEbrP_m1U9Hc2xH7A
p551
aVNbEI-3hWnOcRNRJ6qIktTQ
p552
aVA0b7qkj-69ikXtcmaVqIMQ
p553
aVEUgHFeAvock2Ut3iWPlG8Q
p554
aVy5v2vmVlWZS-o9q-c1Wb-g
p555
aVcPZ5ugSrVrqnqD5ZsJhnpA
p556
aV_P_Hznxd1vF-agFXTS8KGw
p557
aVdU2a2KtObGhcqzEqBL0Mig
p558
aVDw7I9LJgp2tH1QScYCuhbw
p559
aVlYMBCn3zvn_zsCmCBAUZxQ
p560
aVJJi7c7uiTzCqeWNTsldgXQ
p561
aVhZ79bbzGuiU0ThbasNEALQ
p562
aVtoc31C-Qy2smSq0A7Q8FgA
p563
aVgURBE4EKkytlOMuIqJHG8Q
p564
aVnYFhYM9JQbWnxI3zEd-gug
p565
aVe-ZkvfbMZi628OKVcoFOAw
p566
aVSGapZBbSgSYY3fziaskULQ
p567
aVyiX5VCEFhO7MXlmbUPwr8Q
p568
aV6nY8KnhX75RM9mppJryu5Q
p569
aV7Ihurc3XdgxuZU47L2t-zg
p570
aV912l61txSxlAnzQLamabYg
p571
aVkGDzJFasIHxrH0EAa_oSWQ
p572
aVAThUjgEmgHgVdD242hjsAg
p573
aV58Io3pVWsT-RQxGgcYb-vQ
p574
aVYAci8e4YFgaVYyI1mDpp7Q
p575
aVZ1etKi_kBsMr3oGolRrGaA
p576
aVWqV7zB_AbmUm9ww4f5W0kA
p577
aVeMIX3ldCrPJymVenND0sDg
p578
aVy5TdoIb0kddMn99Ahp206A
p579
aV7Q_s1O2Zu9N2DqQ1CL8LUg
p580
aVvEwazCciremwBgkRJgfXtw
p581
aVDUuZjarJ7vOHJNEHNI0WUw
p582
aVxCmFGgpTkf77fNCrvkDBsA
p583
aVQi2vOSs7AIeen_zrWt6WDA
p584
aVgq4_ZraLQToBmUUEewwO0A
p585
aVcEtvNfDOSjvT7k_-fe8ISQ
p586
aVu-68bnb3ipPUrmp6b20cig
p587
aVjTFq_9_eOTwLxI0h6qEtFQ
p588
aVtv_p6iJGmaCmejW0L00JIw
p589
aVzAzRDBl14oqhATB5KCMhXg
p590
aVymbe8nqpYVCIpfgVl5MjYQ
p591
aVheTUR_TGWJ9iYiiEWnikXg
p592
aVNQ7d9DIzP4Uip8yP9hgwPA
p593
aVwjaOY12srS2OQYk04x8y1g
p594
aVFnZZzxaiW3j78AlAJ4OnFg
p595
aVS7FgGl3c4hkRFQKMjLt-Og
p596
aVE0yFUTLVWvtkONagKYxagg
p597
aVL5wNKBuK6-tj7cfFMmgv1A
p598
aVgv9Qi4vgna2UuE7q4qK3vA
p599
aVLZY382ncwmmYLVKUjB1SFg
p600
aVGkYPYQC_H_gKWsalG7dk8A
p601
aVHW84sYbDHRVGRUXFd3wseA
p602
aVIBSOhov5GLSZsGzz3ZsQjg
p603
aVnMV7Sn15I87tDlHJiSE92A
p604
aVKCxdy3cm7H0jXnDhhPvBYw
p605
aVXqNDr54eLDLRfZwo4l4dVA
p606
aVZfKNMCmcE1Hr_iFgvZa7Vg
p607
aVdvw21oJvQ4cZCaK9aferpA
p608
aVDP2InfKc7gvw15s8lpVNBQ
p609
aVH_8tda1KzcDk0McgJ8_isw
p610
aV4svZRamnXS5aFatqggQezA
p611
aVidM0hDe_Pp2IeYgH0DIIBw
p612
aVWdjZK2Zti8mXSXXLYt-aoQ
p613
aV8edTRAKWTzd0B_sfb8ekeQ
p614
aVp9y8sbVHi-0vrsFoMU0jJg
p615
aV2KrRu2odf_53L90UQLKVvA
p616
aVZWbJlxV7sdxBBgyw_-4vVg
p617
aVYO8sWa0wYChH6DQWnE6NFg
p618
aV749lGtWM9PsrWonlVY4W2w
p619
aVG4tqFGRrwqQt7P_MTrhYBw
p620
aVpv-bAsIJc6s31dYHxjKpvQ
p621
aV5zegjfIWCR83scbyd_VT5w
p622
aVhDi7cCBMKKIJq5gI9UvYTQ
p623
aVBC5MXeRMkw4jheSb-GVQBA
p624
aVz_vCijesFnp1zt9-sZkMmA
p625
aV9yRS-SNzkfmThx2JJoilwA
p626
aVPx6FNVLlN9wZQ-uadZiIcw
p627
aVFsDogwXYckKUgs5VUoPbJw
p628
aVX-ITPkx_mvK1Tu6Eq_hfZQ
p629
aVE3mP15gcpSBys8PGeJsuvQ
p630
aVLeif5a7FHom7sfCx2lrzAw
p631
aV0FPlueS5F6l5xIf8Zw8iEQ
p632
aVuqNCIsAUgH0YxIXq5BWYTA
p633
aVByNk-TOnPjoAKrk8NjCW9g
p634
aVmKcCsAUf0lDtL8qWfQCDqg
p635
aVav_-ePHJwSSqMtTQbNoL7g
p636
aVo2UAUbXSNRrqleXtSMLniA
p637
aV74gDxr6rs_8tUTcS1vkr0Q
p638
aVSOxdLaL1Hni_lZ5Ph6Bdtg
p639
aV_BVsHMWSF83bxakE9eTmhw
p640
aVMsJIYsIc_2kVf9xrfasrgQ
p641
aVdUqWP5lD4ubaNahijWJ_YQ
p642
aV8nLxiZc7vr_GI6GcFhWc0g
p643
aVhfSlIJ8FSLV85MzwsVE3Hw
p644
aV6a4-SPP4QJbJuHoMhPKnVQ
p645
aVm1IqfCdWw0Yd1euC8cZgSA
p646
aVkbq9QlIprqKpIWXZEXtGSA
p647
aVUkhsEU89RsOvEjYWrA_dcg
p648
aVOAsYaD7nLC2kDuqO4uaoIQ
p649
aVmJ3KbEz2fEMTGXc30cz9Aw
p650
aVaTysOdHgV9ghIR48l0nyOA
p651
aVVpsXhgaBA7-65Gt2zg8Nkg
p652
aV7WAeeunp2p8sSq44_TMxtA
p653
aV8j_EeEC9dJgiG_2odE2zUA
p654
aVIbbvDkXJIPBYhe7ZioYPCg
p655
aVFJoXrkLaLh76MgHXKdJJFw
p656
aVivugOYd-QcXVEfnm1OyqZA
p657
aVjPqrHW9lXfdtQDmm2wzyrw
p658
aV3eivq15AzsACPuA5AyZUTA
p659
aVaJwVO17rF28WPCWes9qCkA
p660
aVWIlzuoVUtf_7qGmobv9SRA
p661
aVBj8SEo-9tkOjXIYSub3Wag
p662
aVUmFty_GxdqVe35apYnmGbw
p663
aVP4uQXhzxjKFBtnqfx_O4tA
p664
aVu1_a84WeHWa1YlreV6RZtg
p665
aVIv24A0J5eRxZt0G3wigLVQ
p666
aVk0wkhJXCW-AOotS_hRunUg
p667
aVZqP_j4ZTFSN5dkHYF0Lobw
p668
aVKISNjnQaKGzmGritl_5OoQ
p669
aVaJy5lNyUJjAbdsMrJz3YCg
p670
aVK-AvP-T--ZNRmyr0pU36Ng
p671
aVMkoiuqUFOnX8riewi6d2sQ
p672
aVkT9SuRVTapbDgFGMcg1Rqg
p673
aVP1a2WApEoMb65s14RmqV2g
p674
aV1HfkEkNhI6XJXkgrCTBKpw
p675
aV3YWxVDgKctiVBCSXFEuWcg
p676
aVDzVv_g6xsLbMh66HtiZK3A
p677
aVby_MaktiYQc5oDPd1E9uug
p678
aVd2ZQRjuizstCTnicysmpMQ
p679
aV1RHY4K3BD22FK7Cfftn8Mg
p680
aVSxS_XL_yi9c004nXvBuSjA
p681
aVLGZXQsXEw5AS0P_fYXZc0A
p682
aVSzl3MsKnwryJGYuPRPMaIg
p683
aVIgGRqEUqSdpq8l73a8dgSw
p684
aVk6EQholZjA03b-O6foAPCA
p685
aV384vp5K1dC8Ten-1GBKOug
p686
aVUkzDGNbsXBeSbyqtrX_rYA
p687
aVqUZvcHJ6YDNHVmPLe02mYg
p688
aVH9OjeHsGra2utILaHwJfGw
p689
aVuRybQLCYWkC6N19MhaHf_w
p690
aVEGC8np_WPMfp0ndWHDEwFA
p691
aVJw9mNU1ibHioRdyGFTafYg
p692
aVe8kK01COAK614-RuKlXHug
p693
aVajYmOIDZUd2SZjuju3lXzw
p694
aVMyITm7hhBUqRmz2PqlfhOw
p695
aVqFJ_kdfLdNODKFUY4t0qVg
p696
aVuUAWbVSARYcuS34rOT-X7A
p697
aVzpRSyrDdrhciCGtkL2hE-g
p698
aV5p60nXyjQruKvEZix6ahVQ
p699
aVJePAAhbOLBDI74VeePOBKw
p700
aV5xv0xjcRUzP-Zb6CKBOceQ
p701
aV2bWvHWLHRnMgEufaRuggeg
p702
aV96trsoEBDzmH-FDiVw4clg
p703
aV_QJW4P0zzCrhKz4nZ3nd4A
p704
aVFGL0dGh9450_SEtDNlU3Cg
p705
aVtZB8K6RP7BPou0X2tZ-hDg
p706
aVHGXAq1gGFBchML1PffQNnQ
p707
aVwLV7MpP_uDc2OuzFcU0ZZA
p708
aVbeb_QLcQySKwYFPyVu6eJw
p709
aViHr3m4M3nuDEkMP5_XcmEg
p710
aVhuL8a5C9hpdVr998PINuXA
p711
aVwY3dlpLa0BHfDENYAPYuZA
p712
aVKW9xNNu14RcskVcnhZ-vVg
p713
aV5WMIvoMx3l1vn1uJ3HZB6Q
p714
aVtpJrlhn5QPI0ehDyYjN7qg
p715
aVcWsgD-u_TvTohsx6LSi9aQ
p716
aVl8IqBeFXK3dqFEs7YL3ukg
p717
aVZYof0WYlilJ3pgWNSgmYKQ
p718
aVIko1Ic3XzHJb8UoZmpfmOw
p719
aVOn54MnSknSLMDSNnvUV4Ag
p720
aVe80gyXsUZ7__eAuW7JEj_A
p721
aVMfgewgMdqCx_JWk--6PgfA
p722
aVP1g9h8MAtObNdMx-zyTR0Q
p723
aVgOtY-I9lvbyOUShbBhCChQ
p724
aV87iG_3WiNP_2WLxYm53WeA
p725
aVa_J54DOnr3lv6rWRLYGj4Q
p726
aVZJngxOwJDdz1Y_wGv0Wl3w
p727
aVdmXqQTEQ9P6muWLRvO3o5w
p728
aVtJhj8Mk9qpAr1sVcOVurEQ
p729
aVREfM-TpPnDSpgAMB_puQbw
p730
aVcjZfgcQwA6KmQ_ANWKN2aw
p731
aVOSLNYVnB69k6zO9jYzRPuA
p732
aVLEDaU-rvNk9oBLH6oUcoqg
p733
aVcdX8lf5BsJjpC82dzgtBZA
p734
aV7_h1D46AgX2YqZ9aKmx-Ag
p735
aVVveJgvCshJios_o-zwKJIw
p736
aVEIJu1RpAf_mXTmFlf_G6Cg
p737
aVqHfJERhZCrksyHfAj19OjQ
p738
aVNdqDt4c2ZWpGTUWvcDDKkw
p739
aVSn09Z4N9FpfoBbLBSJlB_A
p740
aVrk12aZmkYJGv-N6kFLey6Q
p741
aVtcnu9ivUsuQUNiz944bpOA
p742
aVOjXXfBcsaGMcXJ5In6pJcQ
p743
aVEIFW8Cz9S7-jWWdnZrH3pg
p744
aVpVZdH35B95NKyXNA9rnW0w
p745
aVUSninqjSauwQQ2T_FlkIMw
p746
aVYwXqGKiD9axunX1VlJMIsA
p747
aVsGLFQ4xLg9gJADTwkCI0mQ
p748
aV5k7HbIAamo1PG0uIYALuRQ
p749
aVGH_GGx54q-U_NZ_A3znakg
p750
aV8MSzI-4KJHpGBLiILkrtVg
p751
aV7g-r_uS61rNomPlOKSUkAA
p752
aVYf74t_bR1mhRXY03IU6OhA
p753
aV0EcCWB9_VxTOoAh_1Wr_RQ
p754
aVsCODuHnzNW_s4BuxtqTCBA
p755
aVkJQbc861Qvm_HsNofAahDA
p756
aVQbwJTaWoQjwABemmtGk9xg
p757
aVIJWmlCjfOuvp0qjtr0dzxA
p758
aVpKC_Nxvc2gk_ovj9MJ8cSQ
p759
aVllgLD3ZpFF6qy4JE5mLdcw
p760
aVpctgz0-aQh6fdUF-vKaChA
p761
aVQ3zZTpHQBSbiPq2lLaTtgw
p762
aVE4U8RCe42CpT3rtof7hEwQ
p763
aVfinErFzbJa_sn1gBnz8G6Q
p764
aVDwSFTVUZX0xIE6T54yp2JQ
p765
aVq0n4I-zqiI47xispOqc1lA
p766
aV3LuQTKKb4DgS4nqL3UFyig
p767
aV9_1N2SoNoS3DGV9V-4kndw
p768
aVndq4rJcFLMbMGU_gK5u79Q
p769
aVqgeoNhlcNPiJ0Aw4RShdGw
p770
aVR4i5FshghtTnTZC8EEbjHQ
p771
aVqNyp4GMPiRqbY3kbbPju8w
p772
aV_iUlt5rm-15QoLw0MEEg5A
p773
aVLGlgphMiiSDNlwJAyl1QCw
p774
aVR-GbmmHHfAyPo1qs4jo0TA
p775
aVTpLbrBsHSej6Snb6LXDYxg
p776
aVQeCkX3JI0dZiC6UK4tWl6A
p777
aVMPjwZL8DHKCEbFw8LYiAIA
p778
aVgeVM8YqBzb_8kXR2Z0YsCA
p779
aViK_3WktnHa_YlbWdA0Axkw
p780
aVzJwm3DThV4WUIkyNv68Ahw
p781
aVxV-eHEpcBZzsO4FMvJd2zw
p782
aV9cuklQaqN2d3WA0Ef6jECg
p783
aV_zrquX9OooU6OmYH0rr07w
p784
aVx6ZvzAJRbj_anOuACYsiSQ
p785
aVUCJpL9VFk3g1B2gjRlLy_g
p786
aVODTI9W7fHMKNWZ3g8VcFUg
p787
aVkKFUNcLklJ54zZNUk-7yjQ
p788
aVJ1vEp4AZTPZvdxG9A-u1_w
p789
aVCJu3t6lqoJATXIZaH9sJug
p790
aVSh7ok5ymVZhFZ7GJXb6Ybg
p791
aVTuj_q3-gFRsRzR1xxQqNeA
p792
aVJGXkldESnG69YXlSNVAgJQ
p793
aVDg0L3uU9BR1UgCaCG9Mo-Q
p794
aVXsYLY9LLaFB45MW88AyUHg
p795
aVCkVmV4r5t1T_kJTBDqXNZw
p796
aV2GtsN4VziQDzDK5YGToSqg
p797
aVw-qFEyBuVKyQ_b81jRig2w
p798
aVrHSOhNuRXJypsHKoe1ZjCg
p799
aV1OrJ5VR2qYarPQfSRi4kOw
p800
aV6PaLW1K478xyePOxUI56vg
p801
aVd8EV5R3pO3Dk5mJ5Rni8UA
p802
aVKLPeYlAdnb-ECscyJEC1yw
p803
aVhsVjfLehMqpXk7DBmOUJJw
p804
aV3b2R0n1lyUSBB-itvB8Caw
p805
aVNYMUlUYYEb3H0nKsauj-yw
p806
aV1m4zUU1cioq1tKLiLvlDgA
p807
aVNVX_BF_LcDy3fNshXMuz7w
p808
aVEu_zPTrNVAXkpdSxf7CJ2w
p809
aVEB2dsz1v7px2C_dFXOV3ew
p810
aVwU_V--OY2HOE2qNcDtRP_g
p811
aVW2cxJaoiztWg--sxvjWnKg
p812
aVBm61wrPP_urRlkuH6g2SHg
p813
aVd_xS_AZ1uqO1XHY3V51qtA
p814
aVNLH1_yRHvmvmt5ywhmfNww
p815
aVM4BZ2okdWuc7MqeBjtnDRQ
p816
aV3RWJGTSIRvGmIbwvMqAOuw
p817
aVAIbCGVTv_oPE3S957E47Lg
p818
aVb1gPRSLzVuwk6_NtT5XlrA
p819
aVs8T0bveR5719u33z1XTvSw
p820
aV7z2x16M7IuG8KPfMsyVrKA
p821
aVD2nfOrnJ2OBlX_428sKyMg
p822
aVbbovSsUMkTXQSIVNBa9moQ
p823
aVf7M0QRKGW4jh6_zYDqFUxA
p824
aV09pf_DnQV5Y5y2reoIPXlw
p825
aVyhT2iTPtvQttZxYS9cNF0A
p826
aVPuytdMfre748Xfby1Hx9Wg
p827
aVUDqYqhDaW96-y7l79VMODw
p828
aVI5TgzHGJI3jvJq6xdauLPA
p829
aVwXgBWbJiiyEypu-ROT9rOg
p830
aVBvJD3TvjGFVuJMuZ5D6FUA
p831
aVXUDOc980cjB0PZvVS-T6Eg
p832
aVW_0UsXpT_cES-_hAp_63BA
p833
aVdFKc6f1RZ1AetOuXk6kWEw
p834
aV7OmKrIbaIn_Dt9C1HInnVw
p835
aV4HmMIJHY8lCdINvrxyyvrQ
p836
aVmGbcBNERCYYCqOsr_RPb8g
p837
aV5JpT-YazYAR1V8wRk4tV6g
p838
aV6jt3D5qCzlcGSdHZAeczxA
p839
aVd1-X_lnO4e00Xso0LF9Zgw
p840
aV5HjmnWOtBYAYW-jjdZ3aKA
p841
aVGzYT2bu-h2HtHT3T_IMQ9Q
p842
aVqtsrM6Xxh1LqxG0X6K6tuQ
p843
aVH6skMpg_g-sOrfTQf_Q5LQ
p844
aVoq8qksFNfHVyQwcZsQIN8A
p845
aVrreIYrzI9U052p7nN_qogA
p846
aVIhbvQcaLJh80JhJA-OPv1w
p847
aV7M1E9DZ4dL-x1AjiumdXgA
p848
aVxJ1FlujuLnXYOzqWga66Tg
p849
aVeAMS3aG-3SDEazg9vJTwtA
p850
aVR19oiRejCcgRzbeYz2UQig
p851
aVQs_5WTpjfXI-BPO8F1s1OA
p852
aV74wRr6PP6lbaL1YzUcYGAA
p853
aVCFBDAdWVxOhFFRTa5Fp30Q
p854
aVuarJTrBc8VsXlZm9qlQVAw
p855
aVS_1VtaSWcMsWHSLN1gIk6Q
p856
aV8RJYiN6asLcEWWysZKEyVA
p857
aVyhoCIkTwHihWejVqGYZ4rw
p858
aVVC3Lel2PizMo9vqgDruBYw
p859
aV5miOOTlAtDJQtTwuQXgYxw
p860
aV7r5IkNAxUF5DbMq_YSNC-g
p861
aVJHZzncoaHhqSn1Y9q6u_Fw
p862
aVFa2gj48WwaEPuKW_Lj9MwQ
p863
aVBaQCd0LXvVk1xvUjxZJ9nA
p864
aVJrrY4v21k7_qYxIidhi-aw
p865
aV5eKk8dA1QtKaQr_5i_SCRw
p866
aVTz5a_AzxWx0gtIAlinr1Ww
p867
aVevakMk_jHxl2vQ5gvI43aA
p868
aVLWAMSzhYHe2fkA_QJOw1PQ
p869
aV5Oh4E8lTlAHzs4hrjsLFOA
p870
aVKiG6wzSo1P5vFJ_YZjM7UA
p871
aVKqZRO_ZdCQ40fGrMsUow7Q
p872
aVeCBHpk_jwbaxf1Q6uH3moA
p873
aVj1CRQHz60LoLBgfoS0loqg
p874
aV7ADjU1ZmRfUeMebjbYU3kw
p875
aV4mYS-4UOjTKgsf0tX1_IkQ
p876
aVydNQHa6kiJXQuRnjhULITg
p877
aVqNSZpcyoF7OM6g49sAFUcQ
p878
aV0DnaXWgViDVmll2w1g3Kig
p879
aVwBwXSItcxp2D5Kf8taZDNg
p880
aV5p38fkiNeNeCmunt6HlX-A
p881
aVKY8J9dIOKD2vL0jdzUiuhg
p882
aVgfIVwp0RkM5yMa1u3mbB4Q
p883
aV9wm8Q1W_0_7Ka_AWBK5c7Q
p884
aV1hCKJqPC9uLIXavNKVudAg
p885
aV04kZ5CSh6oKhI5huU5bLdg
p886
aVHr0yeQeFUueoNrgTl2SrVQ
p887
aVuV2HVSRXJMqGsF9Br2VnvQ
p888
aVaOgZsFAm9_-uWIwD8iP6aA
p889
aVX9Bql7RrPU5Mab5-hJsI8A
p890
aVH-RqUOvAi81RFuzM5dMFeg
p891
aVKUZwPgq6IFYiMzwrEH5CLg
p892
aVxR4RLy-6LtX0cLOTchBDtg
p893
aVI-D4qEtJJ4okSLrLKxMMRw
p894
aVDbVzSGQT1yxNPX_WTVAahg
p895
aVGmvfPkjxhonLSaPgfNGhPw
p896
aVlJc5WljtIAI6hBqzKbn_HQ
p897
aVvLGYQ96AjKV5zpW0q3795g
p898
aVlK_iVjCur58if_XcbENGqg
p899
aVj4s9X08gDTZH3MwcByfCHQ
p900
aVAgIGsyUA0aKhUGFWOsI4AQ
p901
aVK3lYaKPdaBim-LCOcmi6Jg
p902
aVTxlURQ2fP9BeFOZUymioig
p903
aVt7zt6AgybRzdPtj7fh_aJg
p904
aVe-tVn_DJs_t8ZIeM0Sq36w
p905
aV9OgQv2RAF9X1-uEnR78ZAA
p906
aVFRLsAoFLBd7qH4N5YAoh5w
p907
aV_Ahg3MfDXfKrh36NUadNbA
p908
aVWB8BmFMORvshjb7tBw0e0Q
p909
aV5ajN6YAEDyrX52UU2AKvbQ
p910
aV6U5QlK84UmPUgoJAwAcL9Q
p911
aVr58TFLKek34K6wpbxFyyaA
p912
aV2dNjePYVp2AVei4ZoSDaaA
p913
aVATnRWnNk5iwwIbwS8VmuKg
p914
aVh5PKBY4jvOwuyYb5Dtr6jA
p915
aVgpaJYV8IT-oT9wOt16BlSw
p916
aVeFos_qY9NM_zRdtKmN8fKA
p917
aVj5Edlj6AHEdKgJdheivYag
p918
aVeog-ECRuj1O1II13t--36A
p919
aVDGeupkmvo1X1oKn-sv9UQA
p920
aVBfIcrMq0Me0D7BBSYij7Fg
p921
aVFozo0B-y42EhRMomR0K5vQ
p922
aVZiEn3McAAbapzyAV0c6qWg
p923
aVqvwf01a-p26UBkrE5k-gDg
p924
aVO_EC0gFko7gzNqgppmyLEA
p925
aVBHmWj2gagqO0_UHMvgOydw
p926
aVLzJzVP0OkStDxFmXZLw2nQ
p927
aV4o2DEgSgY2sDZ16g6U03-w
p928
aVUqbnR83EtBOWK6unSZkeLg
p929
aVBuk9ike3OWSfdWh841-poA
p930
aVIrkBeajv3BQFYwJC9i0e1g
p931
aVyGwEJqqI9oLsRuliqDRAlg
p932
aVBnXUUv_s12eMbYWds5wjPQ
p933
aVEYXBIYovE44vg-3Fk9BCsA
p934
aVo5yYfL5EPfyCMeKWnKPk3A
p935
aVwmCBxE0PfLZD8sxIwAY59Q
p936
aVqWcaGio9JsqrvgmQiIRtIQ
p937
aVJLbgvGM4FXh9zNP4O5ZWjQ
p938
aVbuzXlOCvxtohdMD8g3EWsw
p939
aVX3-ZauIT8o2tcoBHjYUKFw
p940
aVC1ufbUim6sLOn7rKAz8kBQ
p941
aVtAtIQGO0JbJFBuM_zcQ_0w
p942
aVOaDijC3QRwxw9uTadyWIsw
p943
aV7ummB6k1hmUgljgrzevM2w
p944
aVM-P129OlcSg_mxf8fK9ZWA
p945
aVeC0iLr5RxpZPmJ6NGSqijA
p946
aVSry_u4nONZmLLcGOc2t2uQ
p947
aVV9cuDVUS1NCSfPmmabUkvw
p948
aVCLSRz9E-HmQRDwV2_smoDA
p949
aV7ds1oR4-B1o7YduD_gfkZw
p950
aVXWRhaOGnRwHk-FICdbcCfA
p951
aV8UPbuIL9jVSWkGvC47b2Zw
p952
aVD9xr-6Io3hPOh5ZHFRVPTA
p953
aVtCSEEGChTViEZWuGL9UIHw
p954
aV43BhNqFWiJmBs8KkPgJ_KQ
p955
aVVobZRj98tDH7AaojYJD8Jg
p956
aVanMopnoKLimdtD4miKInBw
p957
aV3fx50m708Tl3xJmSoDpRWQ
p958
aVOhTsSYXoD4Poc14JrjIhBw
p959
aVe7oOEdxosDy5NG_XxdXVAg
p960
aVDNOXngMi7USPPY5-6BY2ZQ
p961
aV30ibZa6RLsrdhmCUeoS7tQ
p962
aVxJTu-eNbVET4evm-eBVDzA
p963
aVcPcUqzaNRtTLIq0E6LRqfg
p964
aVoiTq668GwyXo5hMHjdW0kA
p965
aVYfKZh6Op-PmuKyzZu_DMGQ
p966
aVMxXo4qc5lXAbis-umS_2pw
p967
aVt4qEsqfsL26p6s2Q42OydA
p968
aVIaL3NMcVUjwk29CnR7w4tw
p969
aVgXpGMGBAv1lfQEcPOzahag
p970
aVIL3qkg22Zb0s8B9aJYle9w
p971
aVIkZhKseJMzTsFESMbLyF2g
p972
aVL8IxNYtrSkItLbsH7giFIQ
p973
aV9tK5ibv58TxxpndehLXjDg
p974
aVxA6L2w_TlbxHubb1xeBE8w
p975
aVbJGtHxejEJboO2o_DtaPEQ
p976
aVEDjKoA9kv4bn9UXnocnFXA
p977
aV7LkgfuhLVeQZ4qHHq86JKQ
p978
aVWzWNhdIzNW_BRGXk74WQeg
p979
aVp4jRa3qzDJtV-hSjcuNUag
p980
aVmIVfDS47YwXjDjXVxAoZVg
p981
aVX8c8Fp6d90S0CAs1X_6Cnw
p982
aVzMfZLd5_h5W8ZVxTNoeJyQ
p983
aVh6JacIFzb9jxFpKpgsGuuQ
p984
aVAu4pX3CnaWDbwrAyYOukig
p985
aV1FqQ0L--8sviAKNR97K5UA
p986
aVoPjE2T66w_YgnyjhQdJINA
p987
aVCaETzvd1cA5mYaCReGAHjA
p988
aV7NhLscBs-Cj2DfPyVdGrqg
p989
aVqb8TiKsNTUqq4P-u6zQLDg
p990
aVSsBi4mjcfsQJUMkyQlgg1Q
p991
aVH4PWUUInSMs5i8uPpMCwSw
p992
aVM-4dNFcnRJ0_hI357OLGhg
p993
aVMU8xA_S8gqobnDq8d2nsQg
p994
aVvV1AB2vk-7JqDGyS1v4vvA
p995
aVynl3TMy_g0ANEajPpdDVKQ
p996
aV5oc3Jva4wWS4O44a-0Jd8Q
p997
aVMLi1IBqDaVQuONeuXMMSLw
p998
aVyU_z2d0TnLBBFEEYMYhKJA
p999
aV4KBLVr3PYilTUUWj3DWwVw
p1000
aVQzJRy39dMq844mPzj9Mlfw
p1001
aVDEsBsSuyiNWYJyR0KEok2Q
p1002
aV0PCBt3JKD6IooicImKNBzA
p1003
aVfUB_aqie86DKI2tTAkG72w
p1004
aVkWcAfYg-60hpIUEUSzWjHQ
p1005
aVBIqsItY0vyOshMpJ0I4cPg
p1006
aVY-c1m8-0Sa0xnYpm_bRxWw
p1007
aV88Mq2edCXyXRtjmY_Vkarg
p1008
aVtB_SvIaU0KmMgrM4kLPW8Q
p1009
aVMwjZPmEoWlHy1rp7qrmBsw
p1010
aVmr9AlGXvTGSIOkjMyLZ6Fg
p1011
aVMge4KiFP09sWeKpbM6J65w
p1012
aVlo-GEcfXVGrDSDLtR5gI5w
p1013
aVYpsh993XXes9DZ8Cpyq5Fw
p1014
aVaEH2WZFMzLcbJmTiu1urMg
p1015
aVSq7BouKjTovLesy6qewv5A
p1016
aVm59upQj5qUn-termmtxTYQ
p1017
aV6EzE_0QykzrUHHSMcCL7vQ
p1018
aV995cDn3wIwi4pw4N_uLSqw
p1019
aVOU-Zbl4jPyKNxDI6FI3vUA
p1020
aV9-S67d5VyVbYN1bWcZFb6g
p1021
aV3fRRzgNdmGS4F7FiSBtRKw
p1022
aVnzaEIvPWOL9UQhpGWy2fqA
p1023
aVdtwgOhP498xDsXv2vmdo7g
p1024
aVIPpz3dROk6PBhiYM-DEISw
p1025
aVgc4IkXZ3l7Lcmswcht-_ig
p1026
aV4LiieRb-_r9pUCM0mKS9XA
p1027
aVTqUFwP0mQJBPFHql0tLVsQ
p1028
aVEW90_lZ7E2RKT9Y-NGSVMw
p1029
aVT-OuUSSzWgrMCv9TUX3epg
p1030
aVBh6M_VzX9RH1BS8W-uoUwQ
p1031
aVlTG46zyVkZOk6RAR17kqQQ
p1032
aV5Y18eps2VRmnXaBgzoKW_A
p1033
aV6hKY8sj-ikAQdzrkrBcvuQ
p1034
aVz2RiCl_iU-8bM4Lj1zNL8g
p1035
aVJ0xYZYdV1HvGn-wrOg757g
p1036
aV4AxW2xYpZker9biX6Bg38Q
p1037
aVD_pwairtGGR0V_w2xx5XeA
p1038
aVIYreMhkT6e02tsbw-Dex5Q
p1039
aVUVRCa_4ZjdPNoDubKRT04Q
p1040
aVpvKp4m3eFeHv15kYZaq1Bw
p1041
aV5jSwodZ2cLIgD0SLGXYbeg
p1042
aVHFr3uQI9h8sTTvGn3xk5Zg
p1043
aVKBBXaD0FXDTpFuTuSJ6yHA
p1044
aVWxHgUs1JDtubttO3MkQR_Q
p1045
aVC-DGZG8ClR_dOMwYB19vMA
p1046
aVnoZqYxiElPe7I1f5nlNxew
p1047
aVAD9b2W2gPZlD8AQHkBIl7w
p1048
aVTPGHJuQ3LBPNZMzhSCEq1A
p1049
aV0It4d0eFPJ5UnQqe6g2Z3w
p1050
aVNrokuoWJAy_VbMprivfAIA
p1051
aV2Vf1iEMIzHH5NPqOlrDkpw
p1052
aV8Jub_J2ILU0xYYnsgcd7UQ
p1053
aVbqW0f0RigwpYyz1lbxhHlw
p1054
aVHI6af2H4gZyXszxfYsuloQ
p1055
aVMNmQ1s-zdjEgm3bdRs7iEw
p1056
aVcKRGB46UJp3z3TgVlzk4tw
p1057
aVNcNzTKVatkbRkD_G8A891A
p1058
aVKPKQLzVKqLgEPKOWrSCRtg
p1059
aVW5LqZikASAOuLFeFveWpPw
p1060
aViKU6-AJM5fIROvEeb1tBPg
p1061
aVLdYP5VXGBB4l_gypkLuzhQ
p1062
aVdLc1d1zwd1Teu2QED5TmlA
p1063
aVX3pGY4ZUXtWnr9NBW_m3PQ
p1064
aVwjzCw6rBDwnfZVKkM02jXQ
p1065
aVbOwvJUb8A9MekXsK_SrftQ
p1066
aVI9X0wHeZF42h8M-kJjT0og
p1067
aV9tp082Mk5-Ux3x3YYjlyKg
p1068
aVG-OMrmKRaSumc73LaSbhPA
p1069
aVHhPVzZYQI-akaXRK_A4dKQ
p1070
aVXMNdO9lFw3lSPO4gCH_qvQ
p1071
aVRUxAdd3mmNkejoTAX2YIDw
p1072
aVN42CouuodYv-yGpmuUZyew
p1073
aVHpb4Sayep_3Ccd-35ww1hw
p1074
aVAhK5rkcrnSNh8LCSZkqXnQ
p1075
aVCqNRlHAz0LIVobHR4tYqnw
p1076
aVFLmAxYnkZtWybuOmxVgyQA
p1077
aVOEMTOWaemuov7TFD1sW3lw
p1078
aVRux4-v3zqD5lxCqrSa9Ewg
p1079
aVEi4voH2C7JgCyFmABY_CfA
p1080
aV2p_xWNAGm_5sVvr_Vs6mlw
p1081
aVuYzaARioENSfB9Y9Gk2PDA
p1082
aV9hLtBpykEKo008PqE7S2dg
p1083
aVjrlkSj1TR6HWBaOJ4AzwKw
p1084
aVbO3VN1ct-6zD8Pd0AS38rg
p1085
aVPn1f4xiZoynF0nDb-vtY0A
p1086
aVfVLjkKl1vP-jQEG9GBEOog
p1087
aVOPdjBa5toeaVsDlegk0-fQ
p1088
aVvA2aKRFspZWyxSlk0jNgbA
p1089
aV2_7lYF6P2cYKnSiPhhVyPQ
p1090
aV5fmhGouEy_7WLloRyXRyUg
p1091
aVJW7-UF3cdQIo-HAiK29HUQ
p1092
aVT4648Rp4gRKqKHVzQgQ3fA
p1093
aVId4FhgQyoU5H7tb_qipP0w
p1094
aV7Sr941ps7tw1Do5Eks7w-g
p1095
aVEOo2My0Wt-h942RbNRzEFQ
p1096
aVjqvpzGigTojCqqh7xZWfKw
p1097
aV9rqcx3TaIo6Tkacr81JlYw
p1098
aVPMMp2rBcs58y5kLP96HUaw
p1099
aVccdcyzc1oSucd-qRlnYR0w
p1100
aVsiHpyAfAnoBMPpl9d_ib3A
p1101
aV6qAChWfCZVDvXNtcyhze-g
p1102
aVZs-Gk02SPk_CU7NgMAVTJw
p1103
aVXz5tTSD3X3gACOiVn101tQ
p1104
aVyZDUuT1zNgtGkUjYBaHb6g
p1105
aVY6ujotEhfTZd2JPZmsQ-Ow
p1106
aViNQQ0DkYQdRm0AtCwvoQxA
p1107
aV17DImn_vPnuwU9hhRFXlUA
p1108
aVuKesGTGs1o5KgazKq-0iMQ
p1109
aV9M13M8YhFrKeLEG86xfWMw
p1110
aVD60IfSLfKA32Et3cvR-t3A
p1111
aVmCy_GCe5bviiqmUZ7TXwdQ
p1112
aVK7QRkS7HZDEDMkndYf0OSQ
p1113
aVR139CFGp8mrBI-bYt14F2Q
p1114
aVqddBAMIQ40y-RqgP2XFd2g
p1115
aVQlSpPzc4Oy05ic-PsoYH4g
p1116
aVsA98YP3aHiz9Jw1ZeIzsFQ
p1117
aV58oVEzvF6EnOmvVkXYFkTg
p1118
aV_AqONUa91mBuuxS4bgSRBA
p1119
aVyVInYuyaqIFqD5VyX7Vn0w
p1120
aVTwZL8gjnAJ3DXXnyu-McHw
p1121
aVmZYKqiK-9fzifbFbeEbP1w
p1122
aVh6QDKfzOcjLAw08AzRWvEw
p1123
aVo962sVMOZl1IqRG7QJJ1iw
p1124
aVJNaun-m2tSwNjnr7EiFTLg
p1125
aVgecqbUz6uQ8PckqF-J8tFQ
p1126
aVTQTvBU0APcN7QMCZX3qA0Q
p1127
aVl6ZrDTwUHZebCG3C9Va3Dw
p1128
aV6CjVFTO7F-q8BP7oQKB_9g
p1129
aVFgNgBLayRFm6H6Qr66ecbQ
p1130
aVLH9YFarEKe_ByAl6xeeegQ
p1131
aVu540gB8nSBDZez-Kb76G9w
p1132
aVKTPRYqiFdLowAUEAnN7e3g
p1133
aVjYCa8lItfdPGcaFS0gg6tQ
p1134
aV-7teXSpi9nqy58WUd-8yfw
p1135
aVCQbxcD7b6SjBwk7EOA0PcQ
p1136
aVf_3iYyGZCd8BMznQ4O8_2Q
p1137
aVGtc_AiDFXA4Hf2MXJXmsgQ
p1138
aV7ddnq3YQSKguGK15etqGLQ
p1139
aVrrysQBMgpCqhDZuM34vvwg
p1140
aVQnTguWLRKRK_reQ__8k7yw
p1141
aVPbOQlLSloU5Zkpth5I3cjA
p1142
aVoeW0vIYd3rUnAPgmD4fEFg
p1143
aV0r1Ow0HYAAjU7oM_2ePN6g
p1144
aVAnXCOnAFU69mQ6xzdgBleQ
p1145
aVY1lzSa9u-XqzC7RrQO2nig
p1146
aVj5TMmDVFNkoq629hS_78Gw
p1147
aVfiRbomFAAtfTYOTTtnDUcA
p1148
aVDzvNrAo1DJcqA_vZT6cF_g
p1149
aV3sIEwr4LPEruEt2q8ImypQ
p1150
aVEHKzu5r2NEz5Zq2R84J4ow
p1151
aV4t8o25f4-fCt3cVzzNM1-w
p1152
aVLTUVUkEmPBT1sDG19O_1NQ
p1153
aVQMIw7yNXbREJUD_tiMWmNQ
p1154
aV4hJHSMKyKJRl50k9EM6jkA
p1155
aVbr_d4kDitXax4QOb6IaXPw
p1156
aVb6DAp8hLHpSHMi2fGOB7Lw
p1157
aVnCvRJKvJnjzrSpkK79E-5Q
p1158
aVVieHNwB0lXAHYYlT0r2x6Q
p1159
aVC2mqIEnUWeo1UOcW00nWtA
p1160
aVQNn3lvwCBwNcQFPbjAtgdQ
p1161
aViZ8kxuXQbRS2d_HedRk55g
p1162
aVLqEZNMIsJOWUWSxdHHCBig
p1163
aVuDTh-jplczxX9iv6flcrBA
p1164
aVT1EKhweXQnRP3niBrBL7Ug
p1165
aVLBcCkRqkqJGthuqLE0t7zw
p1166
aVruD4E_OMlfEXTdMV0lDFIg
p1167
aVZ6pNPcfT9Apkk-DE0Ent5Q
p1168
aVZYL14FvffzTKU9BpXQt79Q
p1169
aV7xHbnGo4MXFkBm6gYSu_xg
p1170
aVDPT4j7kxjLt332YMwFLkww
p1171
aVD6vRifMTw7hxUZCpNHknsw
p1172
aV5dFz332M4vPK9k5gbx90aQ
p1173
aVAjmnVZbP86tHHPZobuyJ2Q
p1174
aVwpJcD0Qv-q4ShVJYH0hMLw
p1175
aV1nlWzyHiSXXFVC0ISKjryw
p1176
aVUTtXuA_bPa0w24G89SKM6g
p1177
aVJOCmhCid7QH1478S8KboDA
p1178
aV944637VhfxWhdJYty63LkA
p1179
aVtRrMljYqr48OjWoHDDkSoQ
p1180
aVy2SaaWClzB6Pb360V-m98w
p1181
aVwnasanv4cj7tN6U00VfzOQ
p1182
aVAyamCmzsGAVluH8MDQsJbA
p1183
aVGD0XvS6HlCuDjtCDWiLkVQ
p1184
aVOUAu_qvUPNRVVjzd7B0SLw
p1185
aVnAdghiInFhvkq9dycI0Psw
p1186
aVgypeQSuD8-09CtzkZSWfxw
p1187
aVhzyvL2v97xLzLbLXcdi1uw
p1188
aVxePC2Iu32dgHzP892OHIUw
p1189
aVj8INaXpsUvQVzU0nkTZF2g
p1190
aVKu4iZZ9hvKHd2u2yzoFj0A
p1191
aVHG3ROmv3FJZTMJPpThSXOw
p1192
aVL4v7-i9PIOXr7hSyNIAzcg
p1193
aVPuMpFTKS6gY_e31UP5YVnw
p1194
aVbud7jZeGsrzv_3un3ov-mw
p1195
aV7562aEFDvFFUlc44OULd6Q
p1196
aVBaIRfAJzaqL0VKizwlTciw
p1197
aVwA2xaBsT8d2opW_jYe1XLA
p1198
aVGlU3S2Dek9ITkpj9FZQ51g
p1199
aVJPW2qpwVg7vS3EvWkGS4rg
p1200
aVbFlP7uApDamdiVHwX8OwfA
p1201
aV5VCc2OFaSiogGBfEn35GGg
p1202
aVToux3q1WwY2vNV5AhbR6wQ
p1203
aVUzCZyYj511zKERJEpEk7-w
p1204
aVP034NqfS_1sf-pC51170Kg
p1205
aVV0DJ2gDXlKl11VJ75ZN0-A
p1206
aVxKbcJNaFoLziKm2JyfzfpA
p1207
aVsxqn8ZC_sRTmnhFmrNgGrg
p1208
aV2xBIQyPr3Bp5YPgLScMSgg
p1209
aVxULATz2siGXOPia614mg2A
p1210
aVx_c-KatYu_utcgl_n0LAbg
p1211
aVx_AmiOc8DPAyHe5VeoDYEw
p1212
aV2EhBiUnUTl_H2s4DXdKCTg
p1213
aVqTwlLOpdGo9pQBbPJY2iRw
p1214
aVeC-duRpbiVsCD14oGYiDOA
p1215
aV7hDLmP8WRdIpb5Bqzv1nwQ
p1216
aVo_V0HU7HGfmUZ4PD57CN1A
p1217
aVuA9tzuzID3t5yZ8rhZ1bQw
p1218
aVzsdcQyNJRP553oHEItm1iQ
p1219
aV8t8pZI5SAlYhd6UEIkAcSg
p1220
aVtA94-mTcySKBBsaTm5yDKA
p1221
aVGAmd3nHx5TInVN26PLZj7g
p1222
aVEen2yret0IwJUpHLwcxtRg
p1223
aVhT4S-jtRapUap_kzygb_Hw
p1224
aV1RECFIhw6tdiP4l3smu6Kw
p1225
aVC_z3dMXpKdxhwCmaJhhqNQ
p1226
aVCdrIw6JSvzXkGpEcjG1sKA
p1227
aVVWb8gk_DKUCDKw3Xsdq8Jg
p1228
aVK-KiGFq11yKJw6EJC9biaQ
p1229
aV5g0owkWApl_rgDl7D98Xow
p1230
aVTabGgpRrdIis5LDC70TIqg
p1231
aVgbDZhohLAOL1ufdVWHMTxQ
p1232
aVTz4fdGixKO3_HvOh8i81Iw
p1233
aVTc-u6Gfbe78r6cUqWi0AzQ
p1234
aVgrx1z5XwkWstfeyXsOPyNw
p1235
aVQ_M5lLkREB3rb6EAYJoD_w
p1236
aVT6qjr_kZSH8GECSoMbx8sQ
p1237
aVkBd3_wYt0BX-RfS8ymUTfQ
p1238
aV78zibwl7zb6sekh4bG8g8g
p1239
aVPA0UJYogQTd5MIuKMs3tfA
p1240
aVbCVRNEKQyrQqMRxvsiztyg
p1241
aVeHRdn24LZYeRDSOQeCQtHw
p1242
aV2VRVAhzefxIqjzbQ21LdHg
p1243
aVndzT1maiVwpz-7VFFzAb5Q
p1244
aVKl-GhpxIa2fjBq2khqNGDQ
p1245
aVAZ_iSVHQdBiCTnMolLTg3Q
p1246
aVAhySqKdERmUocQ_LGPd_Og
p1247
aVerx8tQ0Wdc5YM0FddaKqKA
p1248
aVxVgBhNzlnSmNY5MwqgBrCQ
p1249
aVL95ppCbcWAt4LUWrCiEvPg
p1250
aVTByvxX_5DZlLmf9Zs_j3xg
p1251
aVs36Rk0jd78z75LaqifnU3Q
p1252
aVe0X_xNjzcNe17NHyowosvg
p1253
aVszGbmw_vq3kVU4SfK1x6Sw
p1254
aVjFs8pmCWB6n0LWzddOwI1g
p1255
aVHNbX93hyrua2p6LO4IwdHA
p1256
aVdi_tqAB6F8AsTnBFtvqs-w
p1257
aVb8ublvizuqIw3Ib8pK4fDw
p1258
aVsFNKot2aT67HFOxA9fZwdA
p1259
aVjWlErd3TOkO4C0MgP8eDvw
p1260
aV6ObhHav156dwof2qHvUj3g
p1261
aVFXSmA6oWEvylen1QnVZlAA
p1262
aVNiHToxa8Fzx5yM1NYAEgaw
p1263
aVQdHS1SCywDTU1nxOprAE6w
p1264
aVtqyhUt1OyImr8hT3wQ0a4A
p1265
aVosjWmpvboG2FxcFbZyglEA
p1266
aVSqoscicPMzL5mJC5JNaD0w
p1267
aVQbuWKli8fme4O84t99UfSg
p1268
aVoJ9gek7PlFUl0KUgzE_Arw
p1269
aVo8TpuB5PmdXXYQhG_SxmhQ
p1270
aVTqL0ytKAucWdW2mR7EbayA
p1271
aVBY1_pf7FHUycHOwYEenDlQ
p1272
aVOR5zHbM31BGqxbZhIT1oYw
p1273
aVJFkY8zMcD_HLGcFTlxiV2Q
p1274
aVhyJboRkFYvJ8kaMY9ZvUGg
p1275
aVLw2vlPixPe72lDp9Cx6GoA
p1276
aVM49CwslHLTt9verCZhWxrg
p1277
aVv9Itp_3tOuY9ByW0caWjbg
p1278
aVEBEpcviiUGlCmlB7duLrTw
p1279
aVC0c3ahJp1U4Jg_kgGoyXKw
p1280
aVlJbxQFXqbgKBdHPKKxROMQ
p1281
aVPIfqmSxZyjr9AGMuAbNBbw
p1282
aVmRZCTkOgDc28VWYMvo3nVQ
p1283
aVf9R4pZ7BNWnYIAX3bK84pw
p1284
aVqjWiqyYCiEUnmb16TlDIyQ
p1285
aVOj_74Fa-VtFHXYTOWHMlsA
p1286
aVBHWIl_wI7P58JrODocBjkg
p1287
aVKUw3FH6WRpL7AEgQyPySbw
p1288
aVYKvRkkluFUMCsFwUyp3SVw
p1289
aVMLVnaAgR3FD2O9mBTKDqoQ
p1290
aVaZdHskuurZJXQ6C7oiqP_g
p1291
aVmQ_aMzTnkHSpbgdnOryeDA
p1292
aVT9va11v5HvQDnEXO9k838A
p1293
aVs2s7K5_x-W6gbCvuhtI6lw
p1294
aV4NkEWTs76FplOihc-qyBZQ
p1295
aV3zk3cCB58m122cQI_LnvIA
p1296
aVZU6pUJNBGXQZrWD9zEHtuQ
p1297
aVrbZ4AHL1LV8KGW9NDGbI9w
p1298
aVRXyBD1euUHNxhU3_LE7z6Q
p1299
aVvIyxu2PK48X8GPJ7B-z9wg
p1300
aV8VFjKdMN1pJR7Ze3joXIHA
p1301
aVYvCSy44tck2FebK5ScZA3g
p1302
aVzKfTRI1_hGZoxk4ox8zW4A
p1303
aV66Y5ExfpgdEFIDqXSQeyiQ
p1304
aVjCf84-Amxm91rbNAOJtAcg
p1305
aVZ9sj68sa1c-v1y4oKoOH5Q
p1306
aVdCBAubKHRb2hVuAoRhEQMQ
p1307
aVI9Xn958b-l07iPpDrdOWeQ
p1308
aVbsXdGEeHJPDkyIzAk0XnCg
p1309
aV4VIAadQ0yZGss1vNHWUk9g
p1310
aV9OHPCG0epevEpj-H7COfUQ
p1311
aVql0AaBp68ckekxvWOF8xLA
p1312
aVo5rtJcyJ6xje1PFj_rhRTA
p1313
aV0Ge4hEQ8HYnrkfm8UHj2BQ
p1314
aVwuyJfCF5gWyz9yrFMaGczQ
p1315
aVDrbY96jCL1UqV0Eq2YkN6g
p1316
aVKfK7inKKPABZHDlDEnAb2w
p1317
aV0yFe_kQiynisvahzVuq6Mw
p1318
aV5q_zOkd2X8lU775IoUnxBQ
p1319
aVEzcrB9DhKtezASq7fZ6ZyA
p1320
aV3ZcxnR9YkDVRqqkDJMRWBg
p1321
aVtXZxc-3HcXvj1Z-Tzs4Mkw
p1322
aVE7uNwsJLwcK7C3-5KPEhbQ
p1323
aVsKWPbBAEM-XP9U5N5E4fHQ
p1324
aVmQIYGEhJEoj6MxZYqxoCmw
p1325
aVCUUcLheYIxjO643azprFxA
p1326
aVDnAVDeL9Iz0532YLYu04Tw
p1327
aVJTKzGJvIK9yuoUf-erV2qQ
p1328
aVLNAI2hGXzAFq_9KFwpdshg
p1329
aVdLwj3_1dolUn6HwVQEw5uQ
p1330
aVstD-LTFFwlmBdzU-0aBntw
p1331
aVooinhDB9ORWrG82UFdEO4w
p1332
aVj-5O-Ehd2eaCHYgmTSfoRw
p1333
aVAY3Cxky3L3aNbRo_o4YRgg
p1334
aVSlXPlhPcmptknTcGg2dTGA
p1335
aVp5HLsmZpzqsZpOng04I8eQ
p1336
aVuYYXLcDNQhgUIQcfauaKrw
p1337
aVFdAFfmeqaaY-1463SyTwGQ
p1338
aVTU2oECyx4VhCnzRzGzOlTg
p1339
aViDuwJjTE5Sw_bb3aFSTBCg
p1340
aV-3rvpkYkYD_N1IP4hSvD0A
p1341
aVVPaEJyi2hZJ6Bc2nBlhqEw
p1342
aVZ5DCk0Mg4eIUsKO9F8DdVg
p1343
aVT0dN9-NfwF_YD2fSQRu9AQ
p1344
aVDFeEJf8h04q3KwRVWUsoMQ
p1345
aVcoCyzypaxobGlLksfpHzZA
p1346
aV7GvOhqdl1EeSnvWQ0NH9mQ
p1347
aVfZadRslL_7WwgZfVD6DYnw
p1348
aVOnAzbTDn79W6CFZIriqLrA
p1349
aVBxWRVYVepLmhTf3TAlRUlw
p1350
aVGepy89vtr6J2LFTb-dUPrQ
p1351
aVsro9D0YFB-FJyRVLQls1QA
p1352
aVdYlBcBLp3KY5Tc78d8k0ow
p1353
aVPxZBTBvhKcTQ0pXhCdy4Ng
p1354
aVC4HVXYYyiBeSUnrpnEZz5g
p1355
aV4mpSNvmyG89Uqy2ahP4JMQ
p1356
aV4HpR1N0-wo61NbRVxvFeXQ
p1357
aVp0hfV1YC5KB3Np5mek3TbQ
p1358
aVb50wGo03MpqkcrJWu9tqxQ
p1359
aVJ6K-D7sD4QvqG1V4RwV0Bw
p1360
aVbm8-Kriygv-R8DVCmKzoOw
p1361
aVJZwPJyoJnqlfjCsrnSUmNw
p1362
aVpVx6DHah5GgEPNOioUZlKQ
p1363
aVCZMubW8II3eoXjTao-1aqg
p1364
aVv8qw502wtQEGpQfMhCVW9w
p1365
aVxK4K5OwcYU0UjrWwEVHRCw
p1366
aVrVCK-fdFm1zPppMO9iMn6g
p1367
aVjd1rD7jr-_zI46Oxh5lDLA
p1368
aVx4tKwQK09akHC7qONjVKcQ
p1369
aVsMzNLdhJZGzYirIWt-fMAg
p1370
aVJeY7qm3p-K5ZhF0dPbSQwA
p1371
aVGNa1y5-b7u_5ary42o8-LQ
p1372
aV1QflFDnReuQW7CoXGL9oUA
p1373
aVE768vU_Q4M1lCRDAYiN4iw
p1374
aVL0d7r2zvjIaGCaj8fxJFRA
p1375
aVI5z8NAbY-fajI7YWvGU8jQ
p1376
aVc3i6BzygBiVpSgGgoYetYA
p1377
aVjz4jg_OTw32IMr_sXFwj9Q
p1378
aVnavSR7K1GFBKqDr8YJgb0g
p1379
aV_jdEeATPzBYYBM0Y9W31Bg
p1380
aVK2C8dSx9215LLcIzHL959Q
p1381
aV795wIi2-x9RfndhVo0byaA
p1382
aVbqCRq4gUpBk0mmMC_Dnq4A
p1383
aVbD_vqSSU_abcCT0oCzN1xA
p1384
aVW4k4E2dbDN6bwtPPgNm-XA
p1385
aV72Q-Gu4rye0kEMWuw7P2oQ
p1386
aVejaUQ1hYo7Q7xCL1HdPINw
p1387
aV56worzbzO-fnU-0WDuabQg
p1388
aVZ2NIEKTVVP2nEmOF4jNxqQ
p1389
aVPFQU2koM2WymKJh8O6UcoA
p1390
aVjBKJMUcMuBmHqe5_U7GQ0Q
p1391
aV9GA2gmLV4NX2oJkuz6fdcA
p1392
aV44cJ95tT0rr08d0e5_wyMg
p1393
aVqELIf4gzE_vlteu7pO7TZg
p1394
aVYajo9-m23_0axIinbB8ygQ
p1395
aViWfyCpUY2EwcElD8DaFKeQ
p1396
aV4OzzW_Zw9g_rjvPlji466Q
p1397
aVGdB7us2H1YKmLwThnHl7jg
p1398
aV3cbsPfoUUrysf-M8FI_0IA
p1399
aVpGwfOqNEL8FbMUFspJdAMA
p1400
aVC3Z5nHWtpalpMJDWWqurcw
p1401
aVkkD0tv_e5E6a8kRpLYEcaA
p1402
aV0xeS1Vpz4bQPlLQxeGGUSQ
p1403
aVeRoOfy-lQso6N3GiUY_c3w
p1404
aV78g3rIFPysoo2SockVvi6A
p1405
aVFuT3Cp-uWLHzMTDi6vnwLQ
p1406
aV6ijZO9TWdl6lTLqe5G5XWA
p1407
aVe2IqS9_G0Hpulw5ItU-Y9Q
p1408
aV15RvAvPxUBl3HmnGMJdtTQ
p1409
aV462vn0tiPlmWRcP71yYOTQ
p1410
aVK2RRY67q6o1cDyDDCxtEVA
p1411
aVA96UMn--KouLcMO6DUi8Ng
p1412
aVveU3mhOn8kF87VfE_JvKlg
p1413
aVFB33W3bwg3ADcIJOcLLz0w
p1414
aVCZ8LgVpvieYAYXhUUZ-iHA
p1415
aV729grSa1Wsn-hfv7D5uOxg
p1416
aVXItYW5ul3OW_AqpT2nDbBQ
p1417
aVvWYK4XApgyT7mbtmNqIxxg
p1418
aVddouZi236BpT15DzXjRHiA
p1419
aVlYSV7xI8lhO76kZs-z2MOw
p1420
aVocZv9DHZaf9tkJyzxL5tbg
p1421
aVhcFSc0OHgZJybnjQBrL_8Q
p1422
aVmt9mrG8wALTzD3YYGim3mQ
p1423
aVV2KKEJ9GF5D-4ykRJMnSaA
p1424
aV91Up53KfAbduhQcaN7JBUQ
p1425
aV3DQKaQN2wjWTWUN0EBwkzw
p1426
aVj9mBYdR7z61X6A3K3VmKDg
p1427
aVTFdLM8R_7Pf1xVeBNKl0hg
p1428
aV5VLwQAIheQwmpusFa-tC6w
p1429
aVYej9s79KJG5r8_aDjJcVlQ
p1430
aVAKThbDjd3WRUBOYOLOjb8A
p1431
aVzjOfUAyqyH_BPe7EkFBrEQ
p1432
aV9j3Lcsbng3Zx3f069S3d1A
p1433
aV7ndalFukYiEalNeN4eL9vQ
p1434
aVk3xTJmkojT4ArjuMV0jITQ
p1435
aV6wE8dDtLMrtEa3Pz7MWQMw
p1436
aVry9MaSq_tpNODhYoIyA42Q
p1437
aVehX704h8SSm8hFaYVyBuAA
p1438
aVEksV9mtXOQ7HGhPfyk5DMQ
p1439
aVHDMoo6OIY4qIIKWfvbYK_A
p1440
aVbdNyoXY4yJ99derJRqhP3Q
p1441
aVdQo2dPQyJE4avsILYYDCTA
p1442
aVwoXlprCuowrLJswWere3TQ
p1443
aVerR6AGn1YcQrnEzivMjlUg
p1444
aVdyM6G7y6Sis61FW1tAYEPQ
p1445
aViSBze6T5ScOecl5yoZDR3w
p1446
aVSgsC2QjARdDAtt3gUzFBBw
p1447
aVgCZAYkIcRjNYYRHQ9htpJQ
p1448
aV1hqOjPxgH8IXE4bNq6DFiw
p1449
aV10NSeX03xC2th8-HGFq3sw
p1450
aVIcIqyNdDl4qz7BjSs0uRVQ
p1451
aVT96EG2iK3ZSv9ACiSFw4cw
p1452
aVL0DJ7-GUDMLIlIR-7vykvQ
p1453
aVjIl0TVodrPeG3euu2proAw
p1454
aVCipRVpM7YzsE-9U9wf2YNQ
p1455
aVRvwZqjdkZ_pER0moPXLZAQ
p1456
aVYDJGN_WXkXBAp2LTXvjyaA
p1457
aVmPec-6ARme_8QAHd7tpJ8g
p1458
aVgaDAgdozCoSRN23WU4PolA
p1459
aV4jNjYtxZ9tPOx6cl9SUIOA
p1460
aVokReFvKqgMr_lVK3WDSmEQ
p1461
aVJ4rAOVQ9PCgm5NP7ZD9lMQ
p1462
aVHoyTNkO1GFNx-FXeK5tD5A
p1463
aVN7j_rJ0Vlwb-Gf-6cy4uiw
p1464
aVlloXa4skoSO6m7T6yQf2MA
p1465
aVE7TOyAtKL06CJp8SSM9WXg
p1466
aVO3BVb5A0djGMi8jAfr0-Lg
p1467
aV2YOVVgyI_Ysnjuzo6gOXBw
p1468
aVYJ_d4gjHPFv8Pjcoq5vZwg
p1469
aVu9tuI33E_9gU7guwbOdJVg
p1470
aVpqsNkM5pgbio1x-2HQoefw
p1471
aVe2zO5THDYoDOcyXcWnQv5w
p1472
aVGWWIyxmD-lynwmiiv2zQUA
p1473
aVz5IG12AAyVW_itRg3QPupg
p1474
aVmnI_n7A8sxgOSmtgI3wzQQ
p1475
aVrUy2MtHyFv8pI7FOW1DE8w
p1476
aVMiqI3DMf48AJQbfoG6fTRA
p1477
aV9DnHnAbd5sciiBHrQs7DJA
p1478
aVdnhjXPmP5QDovnBfVmx7YA
p1479
aVEZldFGSWB9L4syoY-b8-uA
p1480
aV8IetU93EqoUGRVNOt0Q2iA
p1481
aVHidSAIhDmpVf38qriIi4hQ
p1482
aVZ7kHDygKJ4kGxdkJc-Nanw
p1483
aVmweMYUxCsIZUtHVJa_4Z5w
p1484
aV9_LwnUarlbKkTbVvP9FRdw
p1485
aV8c2ObImjXJ9pW0hUccL35A
p1486
aVB-myMqxqAYvU1G0DA-O7SQ
p1487
aVnkDSE-yhvLX4ij5fSzvb5Q
p1488
aVhbXM32Np33qJYmx8HUtXXw
p1489
aV5z_9_D5a-tgkmPUps7Utow
p1490
aVBskUTTscZ1XGa9ev7TlfeQ
p1491
aV8Vjpc7qYmNhc_S-g9bDozw
p1492
aVKLEq6wOySURxlZtgl88Ztg
p1493
aV0ajTatYvxoFd7-C22r6L4w
p1494
aVBp2pM6YLjcKjiKbVecwIMQ
p1495
aVgeytMDcETB3AwhATBbq6gQ
p1496
aV2anxB5OiLo_-eFh_o2j-rw
p1497
aV1LUaZFVMEjodl1tbAGF3sQ
p1498
aV1GaooxqCWHzulI2Ub3CXEw
p1499
aV41LxL4cESUpvenFmcdwm0w
p1500
aVJRuNDBOwKW0H73E5iD_uuw
p1501
aV1ylA7yyrMMUX1zcu5EqO4Q
p1502
aVYhBigRwAFdRPIQxWDjZOrQ
p1503
aVN92Pbr2ygKDLkjmr-4BAPw
p1504
aV2aWEAcLZyKJPvpGAOCnVaA
p1505
aVKQrgpqBmIsBbdAn6CnfgCA
p1506
aVQzoHxxiHH1HDOATbMK4odw
p1507
aVSvkZohb7zezIqef6oE14rA
p1508
aV7Lgle1Ue5f8TT64w3drPag
p1509
aVgZCpY4tmSctmHkvPipp3wg
p1510
aVZvlj-r49ftG7FNCpxKoUiA
p1511
aVC5zOHpwyA-snVGppkbUpQg
p1512
aVPF8HqToO6An0mH6odFoCEw
p1513
aVeR_iL_uA5vgL0zTbg7JR6Q
p1514
aV_in6pQUIS1Ec57MXTPn7KQ
p1515
aV5kA4hmzNNWGGrwvoiGnIrg
p1516
aV2wCzZUwcqRRBrAtBBYxnog
p1517
aVdJhfW7ZqZ5_klqA_8ypHVw
p1518
aVK6eK4nCFDx1p5akiRPwfew
p1519
aVEWpRPVSiPxWbdJBgNDNvGw
p1520
aVHzp7oS3dhpFNNBd8yDmqeA
p1521
aVFG8atOE15c8IoQH_hEb9zA
p1522
aV5ggluCpQ25P0Ma_w2cBDEA
p1523
aVLPdyvyMuL1YFr6wC258krQ
p1524
aVCqU7SXYRo9EbMwlxrSvErA
p1525
aVNa4PriVltR13E48ZdVRl6A
p1526
aV_CRy902e981MZOCngYf8Jw
p1527
aVVwCtpOYiCKA5VXbKZhCSVA
p1528
aVSTCQj928qKb8Sj1TTLuwQA
p1529
aV-ZaQKvtRGQA-4FoUE_1s4w
p1530
aVRyZ3dMJWuFMs2S7zw2C0Zg
p1531
aVSvCjBtbN1cKElDKPTw9dOA
p1532
aVs4M4QcJvxJ5IY0DQJo-sCA
p1533
aV38aN0fB_zHtkw1kb3lSj8g
p1534
aVOOThzIpIiCRok8zaN0NPwQ
p1535
aVUCwBfHy7YpYJdzoeYDCSqw
p1536
aVeEeKRTNSHfbpG6E9VDnJDw
p1537
aVglKJGrTjFFky9USreDxUaA
p1538
aVUslSiDSUTCaq62FMpWK6Lw
p1539
aVYKOKwx7RgJ9SwDC5MdI2gw
p1540
aVaMaTfq-8li4OFvX4kAQLhw
p1541
aVug3wKvNB2gRjzYGXD2whVQ
p1542
aViShOjmJxkLO-z9Y2HU8evg
p1543
aVLQm8wLJ8VZV2ns4S1yUc0A
p1544
aVWjkjrsOzMAQ2wgY9tVyS0Q
p1545
aVBcLFIr4wtd3GQ3fnz15yDQ
p1546
aVKzNG3-kfGCC01USMS2BZvA
p1547
aVw53w6IvO6EWZyh7VF12oJg
p1548
aVkoqazXBW7wAZVry72u5vEw
p1549
aVeDuQMHorChFKUu1Au-xhjg
p1550
aV1dhPgc7E7IzzpxjHM2LphQ
p1551
aVMkYtJK1b5Nlb9ooGA9VFEQ
p1552
aV-2dlgoN1ass-zmrE5rqHGw
p1553
aVu6XxSPpzjlniCEbLxFpkyQ
p1554
aVJVJ9v-gFH68m6hA1NyQmbg
p1555
aVO-gi18Z8ySUYTPiXtdyezg
p1556
aVG7QZWVm-ytyKHpvUq3ggFA
p1557
aVjhGbILmSQ2TQvpJWug49Ew
p1558
aVxzR3J-4vpt6K4ZHr8nQLCA
p1559
aVQQMHSov0KBlBSfb7PXOcXg
p1560
aVp_o19-gYFD1ewixxIV_HAw
p1561
aVnocIPLY3BenFmoR3Ri_QTw
p1562
aVZoFnfG7yrQWpvGR-etdGTw
p1563
aV9qxOJ8fMEFMXR0ihA1xd8A
p1564
aVIs-_AVNBzjTWwB6uq0c5GA
p1565
aVqVhFe0aIoNSBxfLReS3-PQ
p1566
aVYLnrLMUGa6PJZFaOs8etEQ
p1567
aVjALlIr27pjGBK75DHZHMKg
p1568
aVAc-DbrST8bF9Cpge5D9_Cg
p1569
aV6WU_JVpPPnbAfBvMcRoPuw
p1570
aVK3IiNY432fYyVi7NgkZBQQ
p1571
aV5fyROfD0I6Xd0pTqoOcL2A
p1572
aVhmSRCzL7OHm-TKR4jHzdBg
p1573
aVsyJDAay5Huu3QWL51El2cA
p1574
aVR06MTQpLNdsnr5wrCkMXfQ
p1575
aVv2LLg08clPWKyNQFBVlZXg
p1576
aVHRukh9pr1ZCNoSPrE6icRA
p1577
aVd0GmiP5cai20VZr0a_bNnQ
p1578
aVZC2em4oa1xTsGr5wnu7Z1A
p1579
aVWqdws1zeQYTzV_7jq1a0hw
p1580
aVcGTex3CbWSS70YiDT97bVA
p1581
aVn6_ah26nj9V6eo7PZNUQzg
p1582
aVnAtU9E0KNvH5w9-LpawBzA
p1583
aVQQIwwU1tyOyKwr_sgqfYmw
p1584
aVQQSlx-l_cfwkVrNwjV_HgQ
p1585
aV5wr_UtUUdF8L2UlaD1DhNQ
p1586
aVHqnb4hwfrreszzvlzNjadA
p1587
aVPz_qQdmstSxmyFw1r0enDw
p1588
aVjei_nG0uhrvTSXEFL2K9bw
p1589
aV1VUQPwwWU_i9PATyM8jrtg
p1590
aVXaeCGHZzsMwvFcHYq3q9sA
p1591
aVgkeGCryFC7z2vlFSDdKH0g
p1592
aVqfBp53c7Z2DpqUrGhV80zg
p1593
aVdAgImz1R-BKwR3sYhbPqRw
p1594
aVy5drVdOn-r6OyEJnpH3fjQ
p1595
aVrwilTeu5jtWKesNi1KZ5nw
p1596
aVZLrDrRo1Vy03HJka4KVb9w
p1597
aVvSXum5CZEgnouVyPo5BTWA
p1598
aVMV4MCTQ4EbhoZ-JseM1x-Q
p1599
aV4R5P-H4bfPjkocOY1W5SZA
p1600
aV8FuzQ8WN5WKpBbyT2wBlYA
p1601
aVPJ2NaQ3AP5XW568kt7BEHQ
p1602
aVQbLCALa347d6D09WJ37HXQ
p1603
aV7Av7uSgowKNGQtnxWxcKxg
p1604
aVYzqV61exMv__mjobBV2g7g
p1605
aVfnyVBTHEhi3cN1H8FM9UcA
p1606
aVWynSwONQjN7heBpTtP2Csw
p1607
aV0h4RFNScYBmtNhXAdz_UBA
p1608
aVgomzC2CMt6MD_ykOSGwdDA
p1609
aV3gnQUW3pzKE32RenMfuf9A
p1610
aVkzbH1_l7VTSfFFcwTqY6vA
p1611
aVaVtsHIXy-Q-Swf3LtYGNXQ
p1612
aVi-2OzvZUDtvKCMq1vcRSZg
p1613
aVT4PmlxuoVDYekaqsFEG9RA
p1614
aVGVPEk8fvR7_46_5lYch_4A
p1615
aVpajvV_6xebKIE7GBh4Z1xA
p1616
aVvn0wYNms_5PseeYZ6pfLmA
p1617
aVc4zgJxmqz9nbBHF69EskSA
p1618
aV3yOAOV1ZlrhSWgANFWDWDA
p1619
aVLhHBcNVQwHIqcm7LDJ0E1Q
p1620
aVDNKb7_EJPGBULaUwL0mq8g
p1621
aVVj7wI_yuB2QhECoriinI7g
p1622
aVUBLPiSqVisiksxWg1wplTg
p1623
aVfE9qwymLDKUvTXiF99jNNQ
p1624
aV6VWmXeUDmMvVhb8zqWti-w
p1625
aV_adbswq_0E8MoJ9eoVf6vw
p1626
aVx9DcUQTyx_yjJYLkHLcyBw
p1627
aV7HE4yPFbyimzEtVnB_nvzA
p1628
aVPyTHy9VPOhBCiGLsi-PA2Q
p1629
aV4DQ4lTgPz1oaaPLxRtkFQQ
p1630
aVcxVp-a28Cp7lavjaPMvK5w
p1631
aVvbqZcwnXLdOFkZ4myfOTvw
p1632
aVhV8LFG_UleDQFHvqzBPqPQ
p1633
aVGEpavUjzVf5ATsGYkPu0WA
p1634
aVN0L1C5K9ViBD58vig5sahw
p1635
aVOLCdrSL-u1VSG9aPGoM3Ew
p1636
aV5h7ra0kJKswSZEzbFSIpaw
p1637
aVMjOFnVxoKeOikgBGTZ-UcA
p1638
aVy6lu1-YjIQ9uOfClT7VAag
p1639
aV09E4gjiUN_nSqaTprCLD9A
p1640
aVw6WOclNdCBYgUQXGyNAYGw
p1641
aVMnveklSsns2LyYj4Mrx84g
p1642
aVc5NHHW0sNm7eaQBwvQJkkw
p1643
aV0fkjHTNaMCT4FjZqaa4euA
p1644
aV9nTF596jDvBBia2EXXiOOg
p1645
aVD44jdlGFwQ11JPL6j_XfqQ
p1646
aVpRfIJ6zurjEsWmJheDOP6A
p1647
aVSHHnB7GsNyA3y5dg-P-LMw
p1648
aVfPrWKd45pWhHCkojHRb_cw
p1649
aVsdE4iWulUozJXOxzQ5Bjhw
p1650
aVnbsjdiUunohQX1JAxsqpMw
p1651
aVKSw3FAh5d5Q3PdFO1Gevmw
p1652
aVTTnUoYDCQoTfldLs3AuTDg
p1653
aVrwDJu_c584TV4CqPAwu3ZQ
p1654
aVX9WJuPwL1-k1VzExlGXdTg
p1655
aVRcc2zK76CsRhQSAXCQusDQ
p1656
aVbCa0CY4F74N5lCEVOquKkg
p1657
aVilll9cvvlgloor7GrIvwug
p1658
aVTZpTyyGvQkKPnt59PVUGhg
p1659
aVXxnJZbFBJ8BKPg0_4eJdAA
p1660
aVE4FNLrySCP1HwoZKHoAEIw
p1661
aVU8s4-JWjZ7bNSlVEX9JEYw
p1662
aVR0DxkEWJfJYBxkeEds9v6w
p1663
aVLyn5sYu1rfxdmntbaOoZJg
p1664
aVeF2jf-E5ktRQIh_4_-Jxsg
p1665
aVFE135tFrIhxrtAkf6-A1Rw
p1666
aVS_VE4sLb8Tu59VYIgwc5Sw
p1667
aV5H1gvB-TB_sHWasXdS64Uw
p1668
aVleG7stzwTdc37b8Ma1TEeA
p1669
aVMsq2CBPFaY7Fe7h7R20fOA
p1670
aV6sqfAMlX68kusvE_FsIr-w
p1671
aVmG5gV8OWUTp21vLQqmoFFQ
p1672
aV1YC7AbQMlNb5mLUlwwaa3w
p1673
aV5kUA_k-ua1wO68jZ1Yo74Q
p1674
aVVhEWjWUrcHFFNAyZN-TzyQ
p1675
aVSHiJlYdxQmJur3i-gLf9MQ
p1676
aV_rKz-rQPzUAIZWlUHCKgow
p1677
aVvVz2o24e17PuQtHJOkHPfA
p1678
aV3OmXBXH5pQ0esfccEqZP-A
p1679
aVoXFRaSgcT9GwCWfC9lf8dg
p1680
aVNJK_B8dLl1EGgPiOg9_a8g
p1681
aVgz87Wa7QUZ3gNlgE9NVPAA
p1682
aVwJ4lFz3o1HGJ4wNCCsQTQQ
p1683
aVphp_sWMWyXs7Qi5UyTUrLg
p1684
aVXOvQUSHUjE0KkUuwDUR5OA
p1685
aV7B-xM_3t9NKebmkEodw3CQ
p1686
aVE9Gnux898nomZK0fYErQVw
p1687
aVWcemqOjIhZYnHP7p3l0FLQ
p1688
aVgVr5mL60az3_rxjJwRDN9w
p1689
aVwOWZSn3xiSmouEhyJ1RSkA
p1690
aVDwmAsemahJywywhuqv5J1Q
p1691
aV78jHxNL8wHMSq_j8KF9exA
p1692
aVmNAfMA0jhJmOXI4AMaNy0Q
p1693
aV0PVxodALQu-soL5J8bjerQ
p1694
aVSBnuECuWw7ucRrs0csIDiw
p1695
aVU7W7OqdxF87uS_TB-obtvg
p1696
aVtuB82m4oIlKLyWeQjEF16g
p1697
aVL1KkmY4vTgCrS1J5aUFMtA
p1698
aVxoA1_vsxC0xD_fPgDZ2mbg
p1699
aVZBow_7ssh7tWEAyLIrKGtg
p1700
aVwRKYaVXTks43GVSI2awTQA
p1701
aVzc0I2evMOPKNuu1mlm_tsQ
p1702
aVZd9VJFJjfaadaJmCMFv-RQ
p1703
aV2RUfgq0oH5QOYENT6xzO4A
p1704
aVFcXGZFrVPaKfe3wJZibfCw
p1705
aVF1vdFYr7P4Xb3uAQ2AYgzQ
p1706
aVKPvEo0QeT6b3x_UC6WbsvQ
p1707
aVOFdMlXxtkU_nUh8jJ4W6GA
p1708
aV1gJPuCAJC4CfPSUcGZl9QA
p1709
aVJQ6NlXQGXvQZ4P-b5HXd9A
p1710
aVuBroDHaLcXSE24c8EhPvmw
p1711
aV2JYszoQKgJj6pPbaN7cLwQ
p1712
aVgvmhnxxuS6BrPoIuBYd6dw
p1713
aVqbIiJ7JU1AH3RYMm0Okmkw
p1714
aVVcSn9QkXjo6lFuT6PIL2dA
p1715
aVrmzOeemTM-1jiJprpHec0A
p1716
aVURpAp76v2SVBbDJr3Obasg
p1717
aVq2y2K9RwT954oQGgeNAu1w
p1718
aVj4jsgp-e315s11ehJfRzAA
p1719
aVzkW7OAv8Cnb-3SxEBOubTQ
p1720
aV7svK0DI4BOP0cqjSww7cZQ
p1721
aV6V8D6uCQ-ChFap59Fc-ZoA
p1722
aVaaPncz0ICB85up3HUl2TEg
p1723
aVoS96aJIHFWcFAlGHKKXjaw
p1724
aVAYr2URtjoQ8Toh8_Jr4G6A
p1725
aVTv2Hut47uZ-gg8ui6e66FQ
p1726
aVAXb5gCwqHl-_v6ZIMb1mXQ
p1727
aVvYRxMRpdUES85ZEpiQwjgg
p1728
aVGI1WxFbY9tJ9-ChRrwnrzg
p1729
aVG-GcMq-iVEENhjG3z1lZhA
p1730
aVRttisSZQkaRtR7vNZTTnXw
p1731
aVlPljcKGwLlcwkLT5cl0yDg
p1732
aVxhIFWOW9MfwWzW4tUK-jdQ
p1733
aV9MPLntyNzhdUXpGT-h0HUw
p1734
aVIwoc2I0iWMhkmISUeDHYew
p1735
aV9coZa838egYONxSdTe-wUg
p1736
aVV29Yw_j2j6VLXRUUZ3uWng
p1737
aVSTWeDYptg4-GOce1lW9W5Q
p1738
aVZHYSz-c2GEbCfQmxTIZ7gg
p1739
aVrqKnO5RtXm4dYPIkAL815A
p1740
aV8LUM4M_OzTDg_XWn5fiR8A
p1741
aVQaFhHwtJf64AZIzqAujFxw
p1742
aV5E37qENVklkwAMHmIwc_IA
p1743
aVGQevJAnl6DWg80PJuOyX4g
p1744
aV2Z6-egGY-_W_-GLy3df7-w
p1745
aVQI7XeQ11U4D-A5uRcah5Iw
p1746
aVGvBGYrTb6HKMA50TuVQztA
p1747
aV48jrpdXh98gzP5CxPwQyvw
p1748
aVyo6Ewp9hobvoHbIPXlpRzg
p1749
aVwuEJ2XIM97g9iIhDRQYoYA
p1750
aVIgK6pMqEJ7vQS2-2qMl2vw
p1751
aV5Rga-U1cPfKHCFAPRg7FOw
p1752
aV0IhSOm9Vm1JkvRO6XyElGg
p1753
aVulLQMYF2gGIWZg9Yhybz0w
p1754
aV3ZmGpETmJpUvEa7lVLn2kA
p1755
aVHtQmm4EyS8lYXPYNYSWXdg
p1756
aVwdTcd7edB9g-zEP6YWBP2A
p1757
aVp3DmeeCNz-BdijenlxGI2A
p1758
aVoRBHoK2gnLTzcc71oQeQsg
p1759
aVY9iuqd6YoGmeJYh16BlLXw
p1760
aVhDD6-yk1yuuRIvfdtHsISg
p1761
aV4c19YWOjPmbFUK4-V2GEvg
p1762
aV5Pj-V2zrhMCapQ1NeP8j8g
p1763
aV_R1jBQQieKpNGMBqmrLRyA
p1764
aVCsbNmQqu9dKFrgcIItevYA
p1765
aVOu1eo0K1F3AReNg2Z3kjYQ
p1766
aVTpZO3sokGBg8mDYyTRiGiQ
p1767
aVCwmLVUtZ6p1O7QYikSU7TQ
p1768
aVdHgbL5EAEawIcqk6aXe2Ow
p1769
aVcGGVtODSGDMhj1G8UylfWQ
p1770
aVDBcpa6D6S9Cf1JKvkXvnlg
p1771
aV3eexaenBq8HvkTiYjVl3Pg
p1772
aV6b5RLz7szHcSTGKjvKWR_w
p1773
aVMLO4wBnTU0UoOZufxZfERQ
p1774
aV-8ILwSisSrTzcyy_Z0o9oA
p1775
aV3Cbl3_Lm1ahwxbBvq--rFg
p1776
aVGm2JaFiMaNDP3RsYociz9w
p1777
aVZKBUoCqTpwMtmImz64DGyQ
p1778
aVyc1IZG2BL4WCYBHk5noj5g
p1779
aVHYwbHY-srAOoH-t337DpMw
p1780
aV0MR1J0U8uOXtvZlHV-johQ
p1781
aV309erhwcN5ZkrbRD8CzktA
p1782
aVQcxB4grIr-bLSqqydTV6Ag
p1783
aVIMU524Ze7yHf8gc7R-SYUA
p1784
aVRwg1NJ5r2bywahYq44bB9A
p1785
aVcK1HL-8VreiF4K6ZcponLQ
p1786
aVLX2tNHlYsxHNdNo5j0ZF7A
p1787
aVOQ_2_JzEqJrjG5z93cEqmQ
p1788
aVcHTQwW-xsBVfuat5IL3dsg
p1789
aV3CMqaslfBkngxN4aGiwcpA
p1790
aVAX64Yw-0pTjKP-33hU-JPw
p1791
aVWQtacDLMzqmWC4Ks6cMyFQ
p1792
aVInjZs7fCngPFValYpp5B7A
p1793
aV79QqVtTRgP1t5IwpLlwiQg
p1794
aVUl6JwluSTm12PVDIqnNaTg
p1795
aVadJc9AzAa-kM7PJFulokQQ
p1796
aV_AAzQeNJ4E2HIxM50qdwBA
p1797
aVzpIybGTZ0RqArG8BOX0ALQ
p1798
aVgjSOLX7d8EmbMi86Me7s1g
p1799
aVb11JJ7UdR-XxMFYNTnLUaQ
p1800
aVJzITUte597nI4RXQK9nERQ
p1801
aV5TlkaYNie2xjv7nXW12Svg
p1802
aVgfoz8396be8brUupIPEHvw
p1803
aV4f1zK0LmCcpB-qad0KdlxQ
p1804
aVGV5jI4xbBLNiqujLIFrcuw
p1805
aVEwraUz9DLJcMVnBVMGkBpA
p1806
aV77N3luh2YzfJFJGFIfqqbw
p1807
aVRMiE7_RB0yreZqTrPEgBMQ
p1808
aVmJ_ucQ2_3hfTsmCcKb-hgw
p1809
aV3nmHVtQbqFccjr-nBholOA
p1810
aV7lzVV1MgcDb_gIndt0Oryg
p1811
aVHGPZSKWtDYGmPaVzsgKceA
p1812
aVKFbUQ-RR2UOV62Ep7WnXHw
p1813
aVPYIwY8EqOyMLQG567xwVEw
p1814
aVLTF14u6dfIyJQ41P-FooiA
p1815
aVanz96Ltm0hcw_wvlFM1Ihg
p1816
aV3frFidAcPVYAFB2RxxkIdA
p1817
aVG4JLnk8TkeAhZ71V4Pof8A
p1818
aVGGEeGKUez_pGqYXtk-sKvQ
p1819
aVM5rnBQaFtjYTn3T9NIZwcA
p1820
aVz7GWY9qP5l5JLt4rU5k-1w
p1821
aV48nQpsNiVcnTR0nXxsg7yA
p1822
aVUaa7D8zrRUQRhMZjhGXM5g
p1823
aVvL3XjTg0ls_7vBTYpvaLVw
p1824
aVj-EGxXe3ErGtAlmE1XjYJg
p1825
aVyBia51pdmhCmZdnwLa-uUg
p1826
aVTnzc_72OVCdCc7KmfPOnHA
p1827
aVcjKplU8iMakS8Q7ZorzYVA
p1828
aVEgW-kEqxP83MlVl06Qn21g
p1829
aVc98EjK4wKpKrGrdZibPq2g
p1830
aVa-iENHYNgMdY65p9tZUj6w
p1831
aVYLBW5aDryoXP3Haqc_2FLw
p1832
aVVNOosvcE6HN_dqSTqRicXQ
p1833
aVPRsiM1hkoAIb-e7ov8SMkA
p1834
aV50UjA4nDdqypN-hBUOAPmQ
p1835
aVO4-yHHUYMYaiOVsgg8ImUw
p1836
aVpmePpiiObQzWZfgWV2POoQ
p1837
aVhQMx2ZbGAa_oxJNpnTZf8Q
p1838
aVnwjIvTxJt2GpMoKzuKWIBQ
p1839
aVLpKloJ5DFU1rjEENALnGZg
p1840
aV4QC-P82ydY2x2HlXzVVJ0g
p1841
aV0dRqzEG9-2QNnvJtdpdDZw
p1842
aVkVODXr00qMBklPZTP3X-lQ
p1843
aVo7tBcNfv-zMXSTePBLIrvw
p1844
aVFAuIdO5o-HCBi8axoVVkPw
p1845
aVgtobvSdkkIbnhTMo5eKJ7w
p1846
aV9d2wp4ddmkFSnUWjLv0mTQ
p1847
aVg6OnbXvrky8HTtRFWVL_bQ
p1848
aVanfgvbiobw4M0Wnvx_os3Q
p1849
aVlvZOJWiwNymeBhOAgoy11w
p1850
aVMKYcOZSpMwJK7uwacK13EA
p1851
aV9cQ5nhSJJJ9tWDn119QAEA
p1852
aVytU-tGhd5ZW9ouWW6JHpMg
p1853
aVQ_1jSgM9PQyoSmo7yyyoHA
p1854
aVKg00kM0jvMYKKZYrh7Yvrg
p1855
aVttgfifuRK6svfWcXoGG-mQ
p1856
aVoUk9yi2Pcu0isDYGgb7Hgg
p1857
aVqQ3De9cI835Vw5la2CL-Bw
p1858
aV_EGWxiD27k3ahcFpmbSjQg
p1859
aVN56-LiN3xp3xEQbl0oRHjg
p1860
aVmTPC_emDlTlfwr5o8A9APw
p1861
aVjDZJsIyc3jXjcTtJk_p8ZA
p1862
aVzuUWG7OdMv6awFRYhEYT5Q
p1863
aV6_2fCtQLEVXJgbKLnTZaXg
p1864
aVnfJHNu_AQXptaTQIHjpAoQ
p1865
aVcduxK7fng02Xw9Y9uA4DGg
p1866
aVNx5RAT-7gDz2C5Kh2WwJPQ
p1867
aVQi1qgOK08Coi6gtQiiNlWA
p1868
aVgae9LAyt7Qvf_OgAkWASxA
p1869
aVv84O7YwkMuwIH8xReJ0xYg
p1870
aVijRCz1YX5Ws2UW_2G0Bz7w
p1871
aVdu3ByDOljqO31wgRkvX5Nw
p1872
aVgGeC3-QX-ZH1kxnpmUwQ9A
p1873
aVWy22f6GIK_L00NmTv2LpWg
p1874
aVIkDhIjEIzE0a_eP4xWNiZw
p1875
aV7-Wlpm30PGCBIZtH2rOlew
p1876
aVsdh27i5q0EcAKagBDNQw3A
p1877
aVQ_0eGl-aElqHKukHvmLdwA
p1878
aVqpTOf3P3lN4HXqbRuTrh7Q
p1879
aVy9n2sy0gsmnAE-yiemhbtg
p1880
aVZL6BK8wweb-8ncJ7kFIG-A
p1881
aVdjVSTqO5Kn3LT6s6tWVeSw
p1882
aVX8AGCsJHw-GuTqkzy2J3cg
p1883
aVtrpUpkB4lxReIhfr60hlww
p1884
aVGaP5KfdlDuNasKgTNR8Saw
p1885
aViY35AnV-Rf4nY81qkiMLag
p1886
aVRwVfX993kWTTZ3XPC9Fi2g
p1887
aVrwKqYbWkseELVVSAZ3ogpA
p1888
aVz36agKJZm458stAJI0PPEA
p1889
aVpWJoOfYUWSkro0WNxHspFg
p1890
aVQ9OW5SmEvK3CisK5vlMVpg
p1891
aVe_wiw1wi4MKm2Wnk08xiGw
p1892
aVfPu37BiMMM8CctEzQIUHOA
p1893
aVPJvuzeEyZLLqaX8NAw64cA
p1894
aVLLGGe9k7NTVy1Z2wH1_Uew
p1895
aVa6iD1btU3fo6P6UV-YFLsw
p1896
aVzMPfZdODe82SL_zxnv7asg
p1897
aVa2qlFwIy9vUvfUb4EnQNmA
p1898
aV1TGti2jN5PstqlHelBBfNw
p1899
aVsAU0FbmsQwcwk3uvvvtIgw
p1900
aVO4eH0Hlu7lr_uuE2-Ymydw
p1901
aVO2IPbv7l5frXpdwnSZIicQ
p1902
aVoQKOijnFplXhmobb9Qf2gQ
p1903
aVOQQs8AGEQrOlAAm400XFFw
p1904
aVmc5Ha4QyQZvU7fzr-ubhhw
p1905
aV5lMgsMFb1hAmP6YTCzBAcw
p1906
aV2706goA6nyUtHbOrPoATCw
p1907
aVTASZnrQGjcZXIgx-cL8R-Q
p1908
aVg4MOiCPPNBSuTm3BrYRtbg
p1909
aVntxi-hG9qbJwC24EbhT5jA
p1910
aVvfdoTS7wDNjK0ZV2ngPp0w
p1911
aVvGbzUluZ-vEPaIPPcUR8oQ
p1912
aVu7CxxEzx8hvjoJ8onN4zTg
p1913
aV6hLFmFmDKO39b9qsyeVx-A
p1914
aVOo3X0pVhRe93-eky6MvM4w
p1915
aVjAQwIRxZNj2zndM5V9UOpw
p1916
aVvNQkym5qZ-E-4AJ4IQ5JEg
p1917
aVPN6YCsAdFHcHST9vPaxIuw
p1918
aVAidPnJXRWRgIG-Bt95rGdQ
p1919
aV_Kp1IPTi17wBywYOd30raA
p1920
aVXaTts7L8g57_odPEFuwkOw
p1921
aV2GDZzcl2Jdn8186EEOTrCg
p1922
aVum9n7JDaPaO1kmgs0cLjqQ
p1923
aVinRKr1zy12CoZmnK-0IRBQ
p1924
aVQIXz6e0SZ4okLBFBsO79_Q
p1925
aV9q2pK0s1-3xUZKbTzVcGGw
p1926
aVk7WRPbDd7rztjHcGGkEjlw
p1927
aVHWVCdxCYicHA7plfXr-vMg
p1928
aV3ukqpcOyqv-KYLULRtEYEw
p1929
aV0bjFYstj8USMzEV4ZQldjA
p1930
aVY4UKJsGR5Xu-WHSxqdtflQ
p1931
aVzaDZo74bWzds9MunE6XVxA
p1932
aVfg4tWjjvxUxBaMdKa0YAEw
p1933
aVB7pcNWBNTXl4WZ22Y-2x6A
p1934
aVt5DQeB3dORfNwx9otGUrSA
p1935
aV68s6PZRs6bQ9Nqtppdzpuw
p1936
aV1yjkuM180FSUxo__fR8WAw
p1937
aVmYjIWd7hQ-Fp9XQRWVSk6Q
p1938
aVtyniJe6u80Z7QmWlX7Wmaw
p1939
aVo5EYswyzjGLLVLkMzpHv5Q
p1940
aVgYY9U9CXRS12O-oUFoO0cg
p1941
aVlNh_U1fEfxtcLRpT1RpX8g
p1942
aV_XlO-uEB3ZMA19Q8Ljbipw
p1943
aVg2CMpjM8bBNQOQPIi4DKIw
p1944
aVl5PuzGq6hETve3H06tKjVA
p1945
aVVI_8Wsx9ox4KeIrERgQyrA
p1946
aVJEqM8xXhKumU5AfhmsiD8w
p1947
aVO_hGM0Q4AYQS_kAtD5iDjg
p1948
aVI26PLVBABlTcUJ8pq08p_g
p1949
aVC-Dp_7OeGQZDAIDfqs4q5w
p1950
aVQ4k9QMbhZoyzwN7zFx0fMw
p1951
aVMSnWYdS0w5m9JLcr1wHO4w
p1952
aVnRtpxSRqlSUbhKU8RLa8SA
p1953
aVzn5G8-rw3AWfe_oH0AX3zw
p1954
aVLS4qdaBXNj7Q79nuMNaZ9w
p1955
aVZz2AwpjN3HA1-L_XUC5R9g
p1956
aVlzjnPNA1ALVpWCo_ygRatw
p1957
aVXNWXyFgCGaAwvg9QML2Ypw
p1958
aVJxSmlL_MckX0dvS5XBg0Cg
p1959
aVuno5w5Zkhwn-yFkJgFuYOw
p1960
aVm-_3sNY0eLsPp__2C647oA
p1961
aV5U6eSspKyHyaT7jAYpgWTw
p1962
aVtFXtHPDJ9hVJEb266mpnqA
p1963
aVeNsM5ezjhPQWI6XlUGrUhw
p1964
aVdQj5DLZjeDK3KFysh1SYOQ
p1965
aVCS3ykvbERsTrVxL9HPoCOw
p1966
aVzUE7mWTE5Ee8adPD1eWbUg
p1967
aValfg8YykqggAUbeyd2nzmw
p1968
aVGGKesha1RQd21HyzRhj2bA
p1969
aV0IfrcGbFzQvn9w8bl9GKDg
p1970
aVmV6lTLYdIjPcyFKugQq1Zw
p1971
aVX_XFv1Ct6cznxQy9u8Yzxw
p1972
aVcDIVM9ho73XXpVFzRNcLIw
p1973
aVwjLgM9Ybe5shoUPRrGMmsQ
p1974
aVmNMVqHsgJq6YErFPfaUlig
p1975
aVlaAnd3e8T_8WG-weL2zikA
p1976
aVDkLkQTDISbGdEZXlVBdLmA
p1977
aVliLtjZzKc0sv9ZJDMHQesA
p1978
aVhwe7f0QthkND-H4Ekg37qw
p1979
aVW6TH029-LDmCRwuDqV0TYQ
p1980
aVihWw0eSKMQfO5cXLFS5itQ
p1981
aVJMahS85NWAXQuyGLx3UlQQ
p1982
aVkk9nsQoZmqiZemDlGU3S1Q
p1983
aVIeaw3mw4GcPiF4PZkDYuFw
p1984
aVmjDsDnoSghhIiht5cSjF4g
p1985
aV96a54JDbOU6YKFWzur98sA
p1986
aVzqcSaENOBbjC5AfkLyfvvw
p1987
aVrfxlZSBllLwnhFsDBzpPMQ
p1988
aVBnDqHWovCd6Xwp3KzoL0hg
p1989
aVhOv0yRX4Km89-7vJuzPteg
p1990
aVSg3qj0mhSEYX4Co3fVHHwQ
p1991
aVjUrHQG6vBpbozdbLcUwTRg
p1992
aV00pYR20Rbt8c1r86UNlBJg
p1993
aVjuu7S1nP5eirbeJ8-rfguw
p1994
aVklls1rEfABAUtO8J0YXSGQ
p1995
aViuOK9_SBaJ5y0xzu4Fy4IQ
p1996
aVzR8n9zX3AMcksUI641DjfQ
p1997
aVqIPQBPurlqbi07MmJ1kXTg
p1998
aVg-9ioGyD740qSJ1vSN-VrA
p1999
aVB1dCyA21u1mG1bcrq9TTYg
p2000
aVS7g7QxNIYwkhgZRRymzAUg
p2001
aVZH_QCa8_ryVdIb6sSsyCeg
p2002
aVPgdQrTSOX132EgNj8VPNlg
p2003
aVax8kuBZVtC0_eCn_rN_-6A
p2004
aVJk9rocVjl9UTK7uArNBgrA
p2005
aVyZ_wpRr4Svw8YRZ9voCgIw
p2006
aV5VA4XYx2lbA2RTe9xuLZUw
p2007
aVL5OapgBUzqueHjuBhEQwsw
p2008
aVbgxRrIG-lMfptXUcgl9UsQ
p2009
aVTOx5fU8QDEOVx5HpMjwpcw
p2010
aVnwN2iLdDDEYU5-qkLEsPNw
p2011
aVY6Tu9r3AaEaX41BRATQLaQ
p2012
aVxQqCpVu52dCZlsoYoKRykA
p2013
aVftkUQCPM-wFu55Ou-BzFgw
p2014
aVWGRpmHGkPxBnQ8HOZM7QLQ
p2015
aVz4EIzLJlGd7gyje1Q_hKtw
p2016
aVa5mpYojV1dX7XCkAa1qq1A
p2017
aV_6C-yZCmIyOmPESJbwyaSQ
p2018
aV9xweM3L_Wva9wOctUeABeA
p2019
aVS4oe6TlWNqfMSBEL30Ej3Q
p2020
aVZiOvvKr0gwp3qH7Bu3YyTg
p2021
aV2d9yZ11uVa83OEQWxe4vlQ
p2022
aVZ72HJNd2OwCOHa9XMD_REg
p2023
aVsReFrTIJ92iDprWD8dKAuw
p2024
aV6MAxxiW4ypEG4XtCyp9U7A
p2025
aVBRntjnHS-Xak_mGY6eokhQ
p2026
aVdej4yx6kLGKkOmP91-fBkA
p2027
aVu2Wvpa2pj2jfYcYSs_LETg
p2028
aVF8_WdEVmUFTU1pTHBgikIg
p2029
aVaHuGV6FS0j8_1_p9vFeNuA
p2030
aVzDXVGSG41uIvgk3MghurDQ
p2031
aV9HD224rVyahrfg9SNe5SVg
p2032
aVWkrHBKeT_01S0cCYjSwZrA
p2033
aVrqLksDzegxNXMWwZk3eZnQ
p2034
aVmXS1oNaLd2mHJ9lsReOF_A
p2035
aVrBko32y5vK13SD_sW3AG_g
p2036
aVCwfeDdtVKcUEg_thGOlWAg
p2037
aVWBwB_ydYDNHwwd5U2U8UvQ
p2038
aVcaGXS6ubNTlv91ZZyoirjQ
p2039
aVP3-aqSPZqir35Rgs-0P94g
p2040
aVwUr4HeEhhPeiFb7UmiYRzg
p2041
aVEWJbWp3oOwDsv4Lo5eZWxw
p2042
aVik5eS5kHpz7KVNLJCpJkXA
p2043
aVxI7GN5nujGjlYF9lAMtC1A
p2044
aVaDHD7nASfqiQBB6YXy2aGA
p2045
aV_0W9-Gkjkcct8vcStBU7iQ
p2046
aVzV-MIXhL1atiHTc1P1HRRA
p2047
aVLrEjsBYlqXdig7x5DFz0ow
p2048
aVw1s-nOkqgo__sPZAZO9fRQ
p2049
aVG0tUd_gFsRMGY3HXQQ3FJQ
p2050
aVlpxj6LFir23Ds6swW8a6fg
p2051
aV_T2Aa3Vf5t68PqqxvzoX0Q
p2052
aV9Yo5Fl8wstZlxBnD0G-uHg
p2053
aVswfdlAMXwV8OjYD5nkA6nQ
p2054
aVjf_N8zWp30usaMLXdJs9Jg
p2055
aVQ8b36PEPL61nxeQDcLBV7g
p2056
aVYWLkcMOx6YmCxDlLjBG8eA
p2057
aV7MltaA4C_wYJ72JHCOS4zQ
p2058
aVMsFj3NTvmhYNYS8Ef8HwFA
p2059
aV-R2kwt0qMnzwEdAfXPvkXg
p2060
aV0AoLth4u_V4mOx8Az_AIYQ
p2061
aVbywPKk3pvRBxwMWrFVD7Lw
p2062
aViXnHrmTw-r6LNzC2MjjrWQ
p2063
aViR6kEMdNRFc9QZUNTQo5Zg
p2064
aVMwsGayIlUkXQ46mkmV3jlA
p2065
aVs_CFR6l-ecfGZ3tw16PJDQ
p2066
aVH5PdoEWleg9uDU67ZAy6JA
p2067
aVJALpYzMTlwiIcp1s9R4QIw
p2068
aV7KB_fvSCGJQfq0rFl4_ecg
p2069
aVS-WbBty-kGOO3Fmwx3Jmlw
p2070
aVAc3JAxptiN4wfPg-zNNCNw
p2071
aVNf9s7ULgb0Shnc5Mr7JweQ
p2072
aVnvWb376MYChKSA-To1wyGQ
p2073
aVMoFGxMGtYiofRi_iVIyApQ
p2074
aVRA_Q__KAdk9rJqtAByUFjA
p2075
aVkPwYdRKp1-W1-tUR8iylxw
p2076
aVguGPP-3ZsXdLNjtZDnR7tw
p2077
aVM8UHKKHpJHd7AUiMTHGrOw
p2078
aVpJxbs4qsbd9lVYiLLc6Eig
p2079
aV5bF1zC3aEqiwYEkkdcWxKQ
p2080
aVykzgSmJpXj5B5xcxPbBwUg
p2081
aVrJHMVTCjCHXfZ7AboUL5Qg
p2082
aViKz28QQI73mji28XNJFMUw
p2083
aVl41wGszBMiKliQ8F6syUKw
p2084
aVbissv52dx3lT7kAgEmIDEQ
p2085
aVeV2T4KE_sOxNhtyor3t7Bw
p2086
aVbGgHgOU_3l9-wdCrpX0Sng
p2087
aVIKA-wA459qPdRh7Bgl90ow
p2088
aVumtNRvqAO3DvP4Qu4NI24A
p2089
aVhjhAG9x482VE2Yc5Z4lkKA
p2090
aVK-SsrPH0nFExdpLrTo1X1w
p2091
aVBj8SZok_fBDxzHYE4Z_0kA
p2092
aVGjX2WgchvvS-JAWBmzkLyQ
p2093
aVcCxedEjAHQO6h9eJ4KOobQ
p2094
aVy1J-Op_J6YHXrNGOtUFbZw
p2095
aVFLQLCrRlMMsMXOM0sESGWA
p2096
aVK0dp91jd_vqW4uNgvW6oag
p2097
aVDnH2DJxJPAXf0RqmaPoyig
p2098
aVj2do6crDCVPK7QHKa-XjZw
p2099
aV35JjuQ6nsSNshtt5hyLUCQ
p2100
aVYV2-i3g657ZP-vDER2dv7w
p2101
aVpF8eI3VIN8J4vroeywv5tg
p2102
aVdMnAXZ3XPMNgAQ9BwXCFBA
p2103
aVujOrkYCsy3scxDylKRZ_cw
p2104
aVsxQrSzv4SS4b6o3tgmWS7A
p2105
aV1UrXBPneHKLgmr-OYZUHmA
p2106
aV9TO5Tl9SeFV-yldR2eZeBg
p2107
aVmxZQQwT8VkoPGH0-1pbXZQ
p2108
aVV2TaLceKiGwy-y7bAGzPuQ
p2109
aV1FodVSAxoKqEKYQc3QHgvg
p2110
aVoV70qMi0YsuSKcByW4VefQ
p2111
aVnxeeZnumQkrEFORtFpwSvA
p2112
aVIdHIcxCFq84evujUVNcB5w
p2113
aVe9KXojla4OuVP7qcC5LNsg
p2114
aVbhVReN50h-lLfgIWA5Ovgg
p2115
aVFxLfqxdYPA6Z85PFKaqLrg
p2116
aVJ_NA-_WNLAJQg7eZwn1dWw
p2117
aVYO0wmR-mgb_2dNCSyZFoaQ
p2118
aVUQi4riVGsPKCW04I-BiRQA
p2119
aVR7eLlAdeIYsxux_Vm0l5sg
p2120
aVtIjoGxi2r6QvREucvQwZpA
p2121
aVbAOWxEeLaQre59MKZiFEIg
p2122
aVlRB4EvPM0L88f4meH9KcYQ
p2123
aVTMirWwTikHCn5H82K9QMXQ
p2124
aVJBrwWVhNm8PFhTOVkuXk4Q
p2125
aVlk02Yf1xJ-8Fg2b-2fTZow
p2126
aVM1SUyz8KGdVnntu0wty4lw
p2127
aVowO2UkNKk9qrWWd_PTYLDA
p2128
aV_EVOLAjWYEfSOO_smbBxaA
p2129
aVDXP3MbE8srQITLlAuS45aQ
p2130
aVvdZKNc93fYuCggWQ5afLfA
p2131
aVF44RugAixD4yauHlTGXGug
p2132
aVyU7GLvB07AEGhsoCc9scQg
p2133
aVLtPnsCPkCb41VG5fQr18IQ
p2134
aVF5xKTQB4lFfwtUNDeaqEgQ
p2135
aV1SJk2iDxDNLaCWXC-S-GPA
p2136
aVbITJXsOT4hCqahJc1dHMDQ
p2137
aVtBecXDdDmboDVwUu4kmOiA
p2138
aV6VFWCI_JmkATlXCP8uZ26A
p2139
aVz4KriCQPuPJnFr0NGgApbw
p2140
aVBrORoLCE5zVY6ekUb6omNA
p2141
aVxcVanoC1mm8Yc2967qOIlw
p2142
aVX4CRPHvv-33kjxVJISZpUg
p2143
aVa3ZqjElMgAe924sbXZVcvA
p2144
aVmmPzI2wqydgfh7_hjORBMQ
p2145
aV9-ZnudMFXPKp_NLk2HIOKg
p2146
aV3GuqcEYaF1d1WXcwOX5xPw
p2147
aV4JkIFC5MC7LPzu4v3Pay6w
p2148
aVpTNatiVBoVnx2w2kwaD66g
p2149
aVcvELVLQ4jbS5Qqbm79IxVA
p2150
aV6IZuuJdMqjNVTvOVRxoJ-Q
p2151
aV2s5M8rzI7fGSRbtgRc-erA
p2152
aVF1PVqJKljZcpOZU7Otua6g
p2153
aVvKYJ4zF6SQZohN_l-6JE9Q
p2154
aVIBGrQ6YUywBp1Hqu9c1LZQ
p2155
aVBCo64KS3O_gDXBEWohpI-A
p2156
aVr3PPgxuhSh2rwxPqJ2waDQ
p2157
aVXQjigVIJSnsXXUP1igIeEw
p2158
aVBut8zrzUE3-VGr5P6PLgxQ
p2159
aVj37Z4LIXTH9j6KOq9aX8DQ
p2160
aVygb8qHro6-EHNWevravotQ
p2161
aVVMmGHyGj7nuj16voJkfuJg
p2162
aVGpm--ooVaO8bA2OCKcMSEg
p2163
aVfjtmOAoiJdMCFFzrkEJESg
p2164
aV3xqwfJoPtvk7zioX82L5iA
p2165
aVBPWZRoeUQaKg5jAqLGkbMw
p2166
aVTKDL0wiztnEr_rMkX8ZomQ
p2167
aVFiP7mCGs-qelOSmapmbt1A
p2168
aVcHEwqPrYvYGuES-dBwt3Kw
p2169
aVcfjkP0icF3wdaOJQJUy9sw
p2170
aVNV9ftiLhePO0bNE1z8y6qw
p2171
aV6LTV9xxwSlrUzFGWx1A8EQ
p2172
aVZ5T-muBHTERxj3jFqhiLHw
p2173
aVz15C-dJodOlPO8bMBl6F8g
p2174
aVlXYU0X8_lYMjdwtOIE2ftQ
p2175
aVSgEeVAVCVpDKvGem7g8fEQ
p2176
aVQYt6hKIEkwaBtIaemaZAsQ
p2177
aVX4YG1pu1MDVSi07S3i4YCA
p2178
aVcF94J7DhVdKWGMkDYmgyxQ
p2179
aVVFv7NcPW9ajUTLleJ8wOQA
p2180
aVqAVoausNrMEByp2cFt8EaA
p2181
aVJS8zqTShTYXHvpsWYTaQ6A
p2182
aVZLNa4ehr3fXdXfnlT7YVMQ
p2183
aVNFcFwC5fvdPBaR4yBKGsGQ
p2184
aVqYiVyZrgbzxcBxuUgfPyHg
p2185
aVhNCKIrMJSacjMiWVwRb_YQ
p2186
aVzWdO_P10pQlBKL95gYC_iw
p2187
aV1R0SfOQnSknw4wzrZGaFVw
p2188
aVsK679EVs3EUgmXR56bqMGw
p2189
aVXMCNABugc_Pw3g4LohYZww
p2190
aVCsDOXAZzy63chLjT3F-pJA
p2191
aVazE1DNVQFBU8boVbaJhj7w
p2192
aVc2sDJFcMv-r5V1d85KUM-w
p2193
aVgpwq15g8M3xMSpy2RL2HRg
p2194
aVAR9Lf9MIsBqc52qlyKIpcg
p2195
aVbjI3a8pqjEgz6AUfI3JHLA
p2196
aVXbqubzcmF98MI_6ADrnLPQ
p2197
aVn_knxbqwchwrpp1cZ8AZSw
p2198
aVt3uYS5ClpvjS-7ItPEflUQ
p2199
aVFvJtjO5nuIy5erGbkJpJXw
p2200
aVndE42tcNzqjSEW_Ciz2BOw
p2201
aV653_WP4afW32ihnprQmSjQ
p2202
aV2wU2cdWiKegJujTliMJx0w
p2203
aVZPAnqqAKLjg9uCN6Rk1lfg
p2204
aVd0ekT3vqs5MbAJdjJWpGSA
p2205
aV2d9ABtvEBcGCcN6B13Fy1w
p2206
aVSHlfx41Mo4dk2WR1VyT2_Q
p2207
aVrMlzrm64xAGZZOk9Rp6MlQ
p2208
aVG2hXfdIKdhI6TVQrXpTnFA
p2209
aVB18WL-5NBor3W0v-n6Ziug
p2210
aVUayCOOGeeEi9GLz9v4rFBA
p2211
aVGDXftPS1_fTJUtZkaEUDhA
p2212
aVshYOW9wwuA6sNRcnPBirlg
p2213
aVzvf4U6LJdNGOEogmmCOsLA
p2214
aV1VABify4KTXMvGZ4qcUt_g
p2215
aVdmiSOfKvwfjNHMQddKGG_Q
p2216
aV6C6GRESqx2bDxgMHN7LUXg
p2217
aV9sUIgzBxFuGEAObwEEwlHw
p2218
aVCzqGem5OaPAk10bQK4bzbg
p2219
aV5kYvHKRLEyYXqLkiY9OrOw
p2220
aVNaqR4ptSaeqm33-rAtBz0w
p2221
aV21HC9HeDaWy3vBHb9AaGGA
p2222
aVGaErjWbIxxMIQzniXwI9dg
p2223
aVrXrXkZMTH--ez4E8oHhJIA
p2224
aVRC8NJlX3X2Eo240PU5zJWA
p2225
aVB5hl4fV8ZmwN2bLDgdr0Fw
p2226
aVQofXroW2R5FzOzY4TdLTGQ
p2227
aVF-lfG2IBiICdSxoHYmi-Vg
p2228
aVXMJpOti7qAamQFfHJwFBSQ
p2229
aV6OV-xbmgjdXUZ80BdjXfJQ
p2230
aVscIbMKZIigMz4w5Q2SltTg
p2231
aVFOIQ49HJ6Y5fPl8QYr34XA
p2232
aV5CjdVHY504ccwZ2n3uyPOA
p2233
aVoopfFjmzxgkDB0tt160nkg
p2234
aVz4GLHQ2-o0p6Ia4q_4j4HA
p2235
aVVRslgKF7uDpjLjdR_TD-LQ
p2236
aVcKbPGglAjIGG6MeVy7n8XQ
p2237
aVyHplknOLkiM3vb3ozwZtwQ
p2238
aVpAqgiVcOY5mPouuEW96R0g
p2239
aVIRRfbzBmmacXX8ScvLbpWA
p2240
aVNL8BwmaeyYD0ZTR8D7Z7Pw
p2241
aVzG9306XlgO9EyIhSpBBw0Q
p2242
aV1M6tA3TqxcpptHW0_hP9Kw
p2243
aV_VYUU5HPLYasd-xdKLimNA
p2244
aVfxZOOJtT6Zau7Asmppigkg
p2245
aVmfhTOzsHShrvfa7DzTIDPA
p2246
aVlTxZFiWEd2NNF4Eh7_mlRg
p2247
aVtmCLmE3yfILnCC1EwhJ8gA
p2248
aVt-6tdxRaz7s9a0sf94Tguw
p2249
aVicreAcMdHeI7_PUQXdywmQ
p2250
aVqpjEu9iBBzIrBGCD-6ENMg
p2251
aVlSxAQR1FeSljX9zeVJTEWA
p2252
aVx_tbeIz3T1H91Lx6wnLC_w
p2253
aVzJ9NdZoehzdURLEKUKcMIg
p2254
aVQN-Jwhwvv3ZGTg8bXZXAyg
p2255
aVbaedk40VCeup34ltsDsAHA
p2256
aVxwEYTGJ_82ScbpXcheqqQw
p2257
aVg9XTduxnleLxATh6wBT1xA
p2258
aV5MXNeLctex2NmVZHnSvIvg
p2259
aVMqBn0tb5rELHo6d9-8l-eA
p2260
aVQIPFRBEtL9KwgJxbGRDQCw
p2261
aVSrmRT2kc3v5VUWKS3_IFBQ
p2262
aVQ9veWOu7mFj881o3nqB4bQ
p2263
aVBnMnAotMjCw7mYlYFZgCvQ
p2264
aVRc0uocoxDpd4TefcHw_X2g
p2265
aVP3dBcZh_Hmr1wVWFZn2b-g
p2266
aV7SLdPD6ve1hhrrN_sMH7Fw
p2267
aVhwmj7f6KFvaCjhRe9MZ_Ag
p2268
aVIdTGHJKP-kDdFkRB509jKg
p2269
aVopjEyudWKz_AJreQs959Aw
p2270
aVe7M2GgkCfDYTxdPN1LL1sQ
p2271
aVzmoQ2eIDyeKlKVGA8p9esQ
p2272
aV4cHJ1PfvCOsXRHuhzOlnLw
p2273
aVAMWMEXmwrODR1X2G3V9Q0A
p2274
aVjpn329BeGpfAa9n1uPYOrA
p2275
aVdgKjGMbcJF5WvOlyKcw1yA
p2276
aVgTRTzLhbl2uDd_JvB4PsyQ
p2277
aVgFAM3DwY0snYGujBmR-xHQ
p2278
aVlMx29wnA8FxJMcDoME_VoQ
p2279
aVoQDUqkRer00JcB6DDRNH5A
p2280
aV8dAmtiVtZjiRTmDq9QAW5w
p2281
aVUmuyuqYraoB5WOZiev42IQ
p2282
aVgrtRbOhjogmnTXToPwFoNQ
p2283
aVESzO3Av0b1_TzKOiqzbQYQ
p2284
aV2LVuwl-eH-8PYikyFmqcTQ
p2285
aVIZzrRI4Sxtq5PukX6UOe8w
p2286
aVIkkongyT51hv-f3wzIgf0g
p2287
aVi_1ORltzRXvf9H2rvfS-Ag
p2288
aV5crOt_2vpHfFeGOrEeROQA
p2289
aVWj-73Uu3U79CGK_H_kyAsg
p2290
aV_d69ooWJ_7AXYQRvVNSjmQ
p2291
aVg0vVEWvHbKBTvFYGyvhiSg
p2292
aViT9KMTR8NqYwSCW-zMUOxw
p2293
aV22lLsW2-h6enhfaJBknCMg
p2294
aV606dZENmjmvY_ebvAAFWEA
p2295
aV23gakZ_NlN3K0SqOBybwug
p2296
aVNAeUcNL3Uk73Cp5iC25TMg
p2297
aV4sRJvmKh43AqMRrjdwEdwA
p2298
aV_82041xhXs6-_WWT82BA8Q
p2299
aVwymUX-o-ytt31yUo_FI4-w
p2300
aVQID6lFz37QHS2ocwM9kOGA
p2301
aVuEzodpjckhsVQFfsXpFR0w
p2302
aVGDf1SI_SnW93_lJN__egrQ
p2303
aVcpxobfqM8IuF78WUfrj9_Q
p2304
aVTp2jd64iH0v-vjEu2OWjyw
p2305
aVL8Yy7EJJ0HiBYhKitlmG-A
p2306
aVErGfEO3dZB37kxYjTZUXAA
p2307
aVMaiEFfOd1btsTt2vBTMfZQ
p2308
aVeROPfqFhqHh2wDvz-5O9QQ
p2309
aVURrpT6jipHmoiJ6ITOPEeQ
p2310
aVmPoRkgDfkap_cwigLmRwxg
p2311
aV_KuufwYUWh0dha08LoCVnA
p2312
aVWguIXq0dl03dUOaAkwEewQ
p2313
aV0HaSwss_agyMiGTT9kIX6g
p2314
aVYTyAiyMYjJrsLqf8ErsRzg
p2315
aVTCL-2Mi_mZyHjEO9haiD2A
p2316
aVQWA-sRNX-9npPFCkTIkxng
p2317
aVbmL6FRO9VimRygNsMHDBnQ
p2318
aVjqBUVAWJRJ6QIGXVuhdVvw
p2319
aVhnWO0q9Mob9NNPXGeYyi5A
p2320
aV85nvKTJSN8byoeGRxzGkug
p2321
aVrloarAwOAiQWss9kdl41nQ
p2322
aVt28N3EEswYeTtOu27lnYtQ
p2323
aVNcCl0Awt7dF6PZmFHXWGNw
p2324
aVACv-E8CeuStwaRamy3cCrQ
p2325
aVkwMJ4KfhEcrk9jiMe-S6wQ
p2326
aVMBirSnTW4pt2k7Ny6KC72w
p2327
aV9x1bWbbSgFCMLJlJR8mezQ
p2328
aV2v3uI97JPebCDaTNy8jdwg
p2329
aVMWWOPM-o6lCEQ_SyD9AoaA
p2330
aVJacuuWTDI4EU5-t7G6OIFw
p2331
aV5It12biyGxe2Dz6kkf7wGQ
p2332
aVG32N8Tr2LyvHl4FnUTt5pg
p2333
aVROeCBwuy5lfHUo8v0SMwSg
p2334
aVZ86jtdt1HViqw-32A4qs0Q
p2335
aV6yGSXuQdqsLiOZkOmd1Jsg
p2336
aVg9FvjJMMrxtxBkLk8VrWlQ
p2337
aVRcpBuH5LHNj1v9MT1JK22w
p2338
aVXIvOboURyF-hE3truQjdqQ
p2339
aVv0KawuAO7clhXCDKobFs0g
p2340
aVkeJGpYownJ-j2zQJ5huvqg
p2341
aVx5G0GUkGnlWtM49Qe4nHog
p2342
aV9mYjIQ-9DKMuR8kM5M2gtw
p2343
aVtj_fehXLxdGMjyLY-mTXRg
p2344
aVq3KkavNYpcsgbdfeImYzKw
p2345
aV3uP7K1VgnSdEieDoH00A4g
p2346
aVw9IDJZeQhTQuBSTEu4nheA
p2347
aVpcnyZVQKC8_SIqVhhscOxQ
p2348
aV69TTOqH18qztsroIii4e6A
p2349
aV-40RDS4F54qiGiEQUsZaXA
p2350
aVXrpWb4vB7-1z26OreeCD2w
p2351
aVYhSQVIUT0vwmVsd08BwVsQ
p2352
aVYq0LCrGLjJtKcwBu1Nta6w
p2353
aVhZjmoHvx4cgHrauNWBgaqw
p2354
aVxUsLyzWQId6nXwNDVq08qQ
p2355
aVXjAb0mxgCtq96pWWJjUBAg
p2356
aVdd88S7tQtZeDce61KqcVyA
p2357
aVzJ-V2GZ9q7UkwYFl3G116w
p2358
aVptkUSiYeU9O-jVdxnpLxIA
p2359
aVAUmfp8JRMubNrPqSGY1bgQ
p2360
aVplHKBwA18aWeP-TG8DC96Q
p2361
aVsEWmZeYpzVSvZ8GPDcpFiw
p2362
aVVCncaRjqC6ZqUG7jAnODJQ
p2363
aV5idHlOd78PQH93RWIM6KYA
p2364
aVCaMwTEn92eJ1T2Zfr1xcnA
p2365
aV94kQ2TM8Wn85jbmTeG2fbQ
p2366
aV9VU91bqavqmmi3gstjemzA
p2367
aVnekpzd-Nsg7ZsCAIHUkhmw
p2368
aV2rcH1VUK3_aAA-tT82vWmg
p2369
aVDmgWQ9UiAEfovtDpa_-OKw
p2370
aV3_tWe-D5if9y8RrmMrN7AQ
p2371
aV__sXvAzVGUsK6AyzT19v6g
p2372
aVEf9crW61OYp2UJ0ysi3nEw
p2373
aV9gNko6cFCMZbvy1zhJ7-Xg
p2374
aVVxRlBe2wjtycFWSZm1orTA
p2375
aVUlAUTA0hVi48_k73HSeyzw
p2376
aV2PBPh8LTwt_mXP0GUYa9NQ
p2377
aVbZpVmhdKkNCDpdRO-bFMfw
p2378
aVXKOAi4J47i-YEhhHfKkPRQ
p2379
aVNbkDsQhfK13ATV79TI4OQg
p2380
aVKy0X7OLqSeBpvNNf0NjVcg
p2381
aV-382X_bWhJKPJKP1VfXOmw
p2382
aVeE13PjPNjRdIcOwIQzqjnw
p2383
aVCK-Gv3vqIlWOrKP4fhT8_g
p2384
aV6yOvfTHmxFJtQQKLjJ4WqA
p2385
aVjvSgUe3g6LrNQGucBLBvCw
p2386
aVVRMNW1GXYihRxEnr1UI8hA
p2387
aVk4Vhhh4h4cNCQmnxWiy79Q
p2388
aVfRqO2UFdERD4In_9_zO-dg
p2389
aVcUfSGsjKP7ma8FbFqTmZLA
p2390
aVqVr2m3R3VsMmgkrFT3bPuw
p2391
aVGnFvPN1sCMbho2ItzuPemw
p2392
aVjwoEWuiXruWHUSB8DeesKA
p2393
aVblq-6xx8vKcm1Va4LFSORg
p2394
aVi68lkBrGgUVwOk-LSvMj_A
p2395
aVPQKzcvaLfkeKSvIWFDk_-A
p2396
aVP8nY22PirIp-d1GpDn7qnA
p2397
aVVN8mtUnFhroAbdUx2j20Rg
p2398
aVIlkzevKMF1hGYEbrd04J5A
p2399
aV9xjAQ9VlK6e46xy_iLzXqg
p2400
aVFKQUxOfW_W5R4OTut4G1Vw
p2401
aVTwPSiv5n_yprOKhXm8ho5A
p2402
aVU-2-_MrmHPawNcGRYRoDqw
p2403
aVHXBBI_M10pAtSVATIVATYQ
p2404
aV2-_UPP_gKEsx2F8BXZf-PA
p2405
aVf6H9bMJGTcqRsm9t3_yTSQ
p2406
aVPHnlbOQx9-fsIO6t4UByYA
p2407
aV41f1utKc483Fw4mP4AFfJA
p2408
aVgrZ6FnfZoj1pQWElAQve3g
p2409
aVYajT7NNbaexIbXpUuQ8a9A
p2410
aVrBnpbR-cfCD9CKy_ahCmsg
p2411
aVKpfCj839-MPcxM8FKkW7GA
p2412
aVDSyBqO8U8INz9cjduM6DzQ
p2413
aVAmzQP_w8CvL36HSz7T_LRA
p2414
aVfAyRPDQnvG7_PIo3GFAgzA
p2415
aVinLDlmy0p2ZthCYQzGZVnw
p2416
aVvXpB8lRDXaWwwbmT3CAQwQ
p2417
aVp9aNuvYCBS6ieqAQyufD0Q
p2418
aVfaTB5Lg-blm8MG-y6KUOrg
p2419
aVW-oHC268qtnU6qUrpKW41A
p2420
aV7y2cywuUnroLBFep2wINeQ
p2421
aVrLNIlmJ71srkLoMFfGMvyQ
p2422
aVmseBBgYcqyv6T1sfrXI-XQ
p2423
aVuqxrc-R7h-MMMgBrcITycw
p2424
aVKNpcPGqDORDdvtekXd348w
p2425
aV_Sx9XCDistFkOTq4ZHm09A
p2426
aVSLjVCw1XCU9mLgD7yNeHqA
p2427
aVqUqyi82OLmG3VMNMAxf9kw
p2428
aVnb3v4cQdZAYfbcw6eAD4Dg
p2429
aVDfHXyJEcUmeO9XUsdJpb5g
p2430
aVeU_713ec6fTGNO4BegRaww
p2431
aVVkeVbH5zcm0MBKuKtytGKw
p2432
aVB10A-q2fskHqLx5miQpmOw
p2433
aVz5IINIjYm2HfyvHXvGMLtg
p2434
aVoCvxJBOs-Mbg-4oanPO7lQ
p2435
aVziJsGjXvidzZWC1I0-SOSg
p2436
aVZpymIplQK7xrgb9VTa6O2w
p2437
aVGtkxSYxyM6XqcChFuzMjxw
p2438
aVVe6bA_jf9A7EWKXeyWf7PA
p2439
aVE-42EZLp-W-KnDo8tR9-IQ
p2440
aVRwahe1zbFpw6VIjb5ngZeg
p2441
aVUPKWR2kaOne5d4AmdqdZlg
p2442
aVdRJgJylofavL0i3xq1wEbw
p2443
aVB0JdEQoQjr9oka-_YyGZ8g
p2444
aViR7KBgAHgt1O2acHhfIviw
p2445
aVOvDy9zJLGmfPgiKRUsIb4Q
p2446
aVpv__91LMXAbNX50NgeO55g
p2447
aVnqcpabHusqPmCoel5U6SPg
p2448
aV50pVtN734QXvtRh6IDiapw
p2449
aVWBs7VVT8gNW77DQLQ4Afaw
p2450
aVyAWSOUNFcfobOT_FRg_7Gg
p2451
aVrn7oMLg6JJpDAJ_okzt67w
p2452
aVukB1l0o0MfPtE5GoUzJnIg
p2453
aV2ERnU_ihjdwusbdlXSf3gg
p2454
aVjhP9rUsV-KvgHu1n--7Q3w
p2455
aVdNY2PBLM_iuCxM-zMkte6A
p2456
aVo1fTwfqN0sDFNpV1CkOPPg
p2457
aVk2TobcM3RzZGgytyuYDhjQ
p2458
aV49taxSIx7Gwdjnr10QrnUw
p2459
aVbXCWON2Me0o86qvAb-XZPQ
p2460
aVnp9mgfShV3mgLmg2KqTF3Q
p2461
aVrgohunOzrrrgdZcxkQzCgQ
p2462
aVPrd8JRVvPvL2d32GgtNCwQ
p2463
aVLTPcaw-_IqOfTSDxe8811A
p2464
aVfciQLaIjeiRXAtQLbCFKBw
p2465
aV_lLtkWriA6ksfv4LxIE-pQ
p2466
aVf8IzBwBi44eqKYEtaVUWxQ
p2467
aVaYEuMDcx4Ct45TOK4YrOuA
p2468
aVcxCxWI097kFvORVhCLd6kw
p2469
aVy-Qd83m1nmYR2CTxJZz3Ww
p2470
aVwcA-pfNAmxRJC9N2IcJX3w
p2471
aV52CTwAiIZBzAU4dxdazXkw
p2472
aVCwGRFM0Y9ca8MBxg2lVqbQ
p2473
aVUEY70uNV3BxMbxjNmg0apg
p2474
aVLdJljAqDu3UcIZldHcvJSQ
p2475
aVxw2mHGjTOs-VheN8707czQ
p2476
aVYV2UPfovJZVKSEQjgTdbpA
p2477
aVhODnmsq1kK6eA0VLbFQOVw
p2478
aV8zK23kKaEjM2NgGmAcmMsA
p2479
aV_vzNvnj8ob0hAk2QXEv3Mw
p2480
aVkIaqY45GaVX136dXomREcg
p2481
aV0NoHJtug9xefI2OnsANaMA
p2482
aV7ULRdJfVo2-Og5ZoGOECFg
p2483
aV7_vGbkiXM_eyVtIxmc0rFQ
p2484
aVymsa3ReIbctz4IFmPUgWDA
p2485
aVOpNrObgtHgYijZYOU0yF-Q
p2486
aVsgeH1aWYynK1BQiouCTMtw
p2487
aVoqVcCVbwjcA1LXzGfR2z9w
p2488
aVXt6xo-UmJhYtHiscwRnw0A
p2489
aVdog6sPiEuJfG7DNl6WwcxQ
p2490
aVhUCujBvgttk5jNh_uQwi2Q
p2491
aVczJKX4DmZR_1JeRmPcnmbQ
p2492
aVJ7NwmxRazh6pw2K9FwxNLA
p2493
aV7jAkIb39KKKvbAo5dc6ZgA
p2494
aV24hc1g8a7besgI0tMb3v7w
p2495
aVLTpv1IAniQ8QICHrIEwntQ
p2496
aVaG6AXBnvk1NrTKCbon63mw
p2497
aVNIFrjfEot4GFR-tqiqrsHw
p2498
aVdX9KSdyqBRNYbWzDT2PTkQ
p2499
aVSuMi4hxed5qk-M8IklFg8Q
p2500
aVm5MaRXA1rNX1n1Kbr8-Sog
p2501
aVk7VQD0pbdFN0Ju0yNVrtZQ
p2502
aV9vaCqmQ56EtUyj6PV8_D8A
p2503
aVFChZqoNWuLZr5Lj28Cq7yg
p2504
aVhpX2k1MvzRAF8naLfaUYWA
p2505
aVngARCEpI58h0XMhD1nVQjg
p2506
aVafKXfZ1OioxbW2Ep7L8edg
p2507
aVmtIQi2repqcSioMnO0fymw
p2508
aVK204Wr1Ai89USllo7KjI7w
p2509
aVqpa8Y4VAMQKh8P5zqC5Y4g
p2510
aVz7ns1g4S82kaBdIAC_RMRw
p2511
aVRKVYQ00LvK0_FO6Ll7lvOg
p2512
aV9ZdDRjkgD8OZGBDFgtZong
p2513
aVGZmpmQdY90Q4g-I5waNMGQ
p2514
aVk3WyM7vM-4nKxJQaFBdwJA
p2515
aVgoar7zF4G0LdsQ1Y4KS3Iw
p2516
aV_zFva1D3lgJPvT-8vGQQJQ
p2517
aVkL5LI_GYZJkkP73wl0Qtlw
p2518
aVyednPCeCKT2eQWtv5wd7Lg
p2519
aVp9sxVs0JlOf1K_R08ylzbA
p2520
aVPzQS2vMnpTsryOtf8WK17A
p2521
aVTn4PV88E9jlC2xhvqN8zAA
p2522
aV5oA6zlmJ4jQREDH6dNCq6w
p2523
aVaeomionBr_VTsIg119vtSw
p2524
aVF2Sz8PJ5j1JSwFNsB4bb3w
p2525
aV5G-ulG_g_MpcIYlNzaCMmA
p2526
aVJYSghx6tAyMM6ArdnSxx0g
p2527
aVGbcFCQp9VmgMaW_jaMAq_Q
p2528
aVuE6hI5_i4QVq12xU99xtqA
p2529
aVVXKIx4WUGw3jNad0BOcFYQ
p2530
aV_v-ohI2mMcUg8-3p3b12Ow
p2531
aVHjrwseYzjupnpMdV4SaPWg
p2532
aVX2f2s37_cFKo4xpzGFqk1w
p2533
aVeLp6aAgRL-tWM2wjRdPQMw
p2534
aVovuL7n30fogNHrIc51uSgQ
p2535
aVq6BzQz426uH6rB7bmZvexQ
p2536
aVPFt0wew2GqfPpesuUC9-cg
p2537
aVjWdktu5MTTynhKVWqPfo7g
p2538
aVH-B_JoResY4PyXND1_DQfg
p2539
aVBGGR5ekPK6YqMRHgYNJGsw
p2540
aVzXaW8C2qtFHGVTETEcUX9g
p2541
aVZja7ykq3icDzkN20XX6j1w
p2542
aVCS7DuVN2YkWDU7aoeFj-og
p2543
aVsbFf2Z6YJOiGvRasNzTGuw
p2544
aVBY6sk5uACmes9rU7vpdzWw
p2545
aVLRHlcXcNERVsekrngMLphA
p2546
aVkpC2FfWvH9UsIR6PWPkffA
p2547
aVa5xUI7TvsNhM5gZr6KowDg
p2548
aVgB7X5o33o6W_rAGgHunSCA
p2549
aVpSAoDrxX7Q5VRe-7gpDpOw
p2550
aVTdTl_T42gbewHCMQVqZ_xA
p2551
aV3H1I31BQeHO017Sg92Cbow
p2552
aVzhUfGea59rCRvyObwdUGNg
p2553
aVWKlMFUCGI7dCysGkFLWvaQ
p2554
aVoxig-TT9V2QttAvRqa5WNA
p2555
aVnjdz0sOFfsawcBi6jpKNhA
p2556
aVJzB7NITHQ7gVHGVZ1ntgIQ
p2557
aVAFaUDCTQ8LC33Nfmb_KWhg
p2558
aVttKbmaIhQREGeT2esJnIMQ
p2559
aVyREHrM0k3MlDxc0ZjwRoNQ
p2560
aVxeCqEmjQi0M0dlf4DXcugA
p2561
aVfCkvpPqOziXHHu-f8tbeZw
p2562
aVizOvku5li7kyzY76UzLP2g
p2563
aVuXjc2pnnhHXL-gXYYP0nWg
p2564
aVwUrnir4yQj4Lnta-jdqqxQ
p2565
aVxhPdBbduivnHYTnoM0K1Bg
p2566
aV-ORqiS4L-8pq3dLsUazXTg
p2567
aVgQ37eH1H-lobmfkEJArq9g
p2568
aVOwGCYIwyIHPMfLVOT_7-1g
p2569
aVz_DGwPyUPgCk5Q7-WunsbA
p2570
aVugmQx75KCr8nc8E-d69K8g
p2571
aV80544c9_y63PfEi9DgjtoA
p2572
aVSqW3igh1_Png336VIb5DUA
p2573
aVu4h4PzFlerkoVAGV7Pe8uA
p2574
aV1qmDaCGJTam1--pEIuvkbg
p2575
aVUkylJaNbvMENvL61dgwdLg
p2576
aVynKAUSYi3c8M-rkVJI1PcQ
p2577
aVI5KYmFYPr9SEllG9L_qszA
p2578
aVTjJdpI5XX2zwHmXQbnEWeQ
p2579
aVu7fc6_zgJEnEq3rEkC1gBg
p2580
aVoBABBuVRfIump4jHKlJmHg
p2581
aVLAXvmv02hGy1TuSVCo3Www
p2582
aVKbjqY2ketAH-3xT8i_xgiw
p2583
aVLDIl863KlzNr8hmBXupkdg
p2584
aVv2R_QhaLPvxKbdpJp8lPdA
p2585
aVpHpOuNf02eMyhdCnvMQGhg
p2586
aVr2UzW3YrmpxxkpTOuqOdJA
p2587
aVtFuWPheGlUElFlWUTLSUjA
p2588
aVZsXooo1ndVmHWb9KZfvkaQ
p2589
aVQ4WmBfRD6rcTSXVZqjKC5Q
p2590
aVLLGCa1g8owtW7xa0BbKDug
p2591
aVhOYHvwMm2Y-6iKvpaDZrJw
p2592
aV_ucDskZqK5w1QHkoA_nlRw
p2593
aVQiZCMGZEwVtg1ybOKybLhQ
p2594
aVid0K2DhGNocMRMoBcvCsyg
p2595
aVZZaWT8wUtkdBW00MiXru2g
p2596
aVWeoNqKlbRXB5UREWL8eAaA
p2597
aV8ovwNH9wXDzaCuHG9TyOOw
p2598
aVhsRjct8UiUHU54B983GmcA
p2599
aV63iOXcDVSr8Jm0C8mjzo6g
p2600
aVI5kKpCDxdrV1Lxss2T681g
p2601
aVC710slX9bTgw6cG1SgDbVw
p2602
aVABiwctEu-OZ8YsVc5lnLZQ
p2603
aVwk3wGDfJb1V-ciZpyhoNAA
p2604
aVxVopquE2JKetpNJkor_jOA
p2605
aVBpJDI4Fj92lLNALQQeLvLg
p2606
aVnAS-0Tdn_TFdlMfNQfldYA
p2607
aVkt5WJ7JdB9xxuXnMoABQfQ
p2608
aV_VHU9KZUHRLp2Hc2JOKlYg
p2609
aVcTYEiHz8AEOpiwzDY9ngWQ
p2610
aVzSieFkjliA9tEJBI2JwRXQ
p2611
aVA5Xd85djipsW546Bq6qIYA
p2612
aVhNmSL-HfN_IdPlWXP1ILEw
p2613
aVCPMughTfh7nuKZzXCZJdHA
p2614
aVv8jZKf_YN7ayVy6ksyoiKg
p2615
aV5RVbdMA1oVz7GCOIwn1Z3Q
p2616
aV8SCLMB-jS-avkTRDeVKeqg
p2617
aVczeihVQNDXMlAq_H5_T4sA
p2618
aV74O-ZufCco3hBcMQc3Vf8Q
p2619
aVT1NLZkP0cJw2mWNYXhyvgw
p2620
aVajDnwze3tMd8c_xydIkD1A
p2621
aV6RbCJLiwNYwS6ab9vzD_zg
p2622
aVohHDnTYRjHfp8yCjqT88UQ
p2623
aVdLAxjXghBijV6krvKt1RHQ
p2624
aV1n8bvxpBoUOAJsC5csuV3Q
p2625
aVX2wlWnV3GhJcs-Dnlxr2mQ
p2626
aV1flOAXtu0-0YEvgJg1r3VQ
p2627
aVlRfteK8D_8pfoFTk4ZuOqw
p2628
aVrjKMTKPsjYw4RtiMpHquJA
p2629
aV7A6mfqSfG3AG3WZcr45m-Q
p2630
aV2Xbu_vMtwx9yvSlMKJB8yQ
p2631
aVsz6_gKcHjtcpWKIZLXV85w
p2632
aV7TMcUzNqnUV5Bfwni800HQ
p2633
aVnJbeMF8x5usg_RfrXx4P5A
p2634
aVXO8oVmObhdsGT1Blrby2-w
p2635
aVTkJasaS8KVqPdcQRZdrdMw
p2636
aVBATsNgvvNVbw7_Re1qoq4w
p2637
aVQeShrs6cUNBjJoTCkJiB0g
p2638
aVgn8cZOxQIZNUeiHcJ0WxMQ
p2639
aVCh5uSE0lWuXlRGV9bDVyXg
p2640
aVvg55SAkrEmuHpWfIMtJjBQ
p2641
aV4OlIwqXEEXr6YvE3Nz2tTw
p2642
aVPKYNB-KDGCqiHtMO6vEOKg
p2643
aVSYRHkzfM3E2Pa9fq3T0WTQ
p2644
aV3PDQyGDyNitVsFj6_dYtcA
p2645
aVxIhvXZPel8MZ4NFzoqGYxg
p2646
aVT45qonnG40PTVex3Ua2Q9w
p2647
aVgldPX9ANF5Nic0N7igu2og
p2648
aVsh2m2SXVZlFSpsTOCHftzQ
p2649
aVH4YK4AK3TimOFmv9GtqPGQ
p2650
aVMtjOk7u7sp3yWyzscAIG4Q
p2651
aVVGxJbglGlx-a7Gdc55Q6jQ
p2652
aVH5vlbkJ_8mFI1wCGHO3apg
p2653
aVpns5NH--mhuCC1vK-xbYsA
p2654
aVKXv9wm5W9LTNZec2AsmHgQ
p2655
aVwvDT67R5duF_hYx5iOXLaQ
p2656
aVHgSsIF4PpESGUMu-rNPg0g
p2657
aVhTZGMEKTtaY0wwB-czFxxA
p2658
aVl1hqzJAIYEs3NQYqjH_kxA
p2659
aV7mOWMhlibS62hedb1m5A3Q
p2660
aVQCZwZLYHkTyYQDr6jdjKjA
p2661
aVaal0SiXVRmUoM20A1m7xDw
p2662
aVu7cXSt_u8u1NMxCI5af4xA
p2663
aVfzL7sTgCYhoSIUpcQ7mrBA
p2664
aVagINEgy0jHy5bkg4u2HOCQ
p2665
aVF6c3D1o9Z4Tl6cDorb3WgA
p2666
aVFh-mO_bD6AuSnJab5r6i0A
p2667
aVU94MrQjZ3OVq7lPw4UQ70g
p2668
aVMYyJ9orpiRq0prjVq4ku7w
p2669
aVkhSsfe3MUunPsJowDEuFvg
p2670
aVj87Y1hyifp-XHN5HuVtpPA
p2671
aV8qNOI6Q1-rJrvWWD5Btz6w
p2672
aVrOyJdbHFLn21KKRh7RlGRw
p2673
aVmVbGnu5VsAG79b0fMoKItA
p2674
aVsfuf1picFc7sVm2-AXYkog
p2675
aVCFtZH4Skp9z3o4ToSywI4w
p2676
aVdfVmClBit5Hd7u9_lFY1Lg
p2677
aVgh5MqW8s3aEyRVn-Es1geg
p2678
aVxGXtoeQAggLP9646N4Iwnw
p2679
aVsw0nkPQvtxLtTyRnr-dt7A
p2680
aVbzy0JfNunYNyH8CYDUFpOA
p2681
aV-1xCh7Cocn6IwFzhELyohA
p2682
aVf9Jspd8aJ7GMMMH1Oianaw
p2683
aVz52UIMVsYhfttfOP2H9VYg
p2684
aVFdRHqEdH5QIFdWGQ9CcFSw
p2685
aVfTNhNmjkNzdaPy3LFAnwvQ
p2686
aVhbYY29onGCq0yux6rFhb9w
p2687
aVGN0LE1tKNoT0UeWrUU-cbA
p2688
aV7WHwaWg5uW3oWsEXLzQ25w
p2689
aVsh-Wp7RrePOaU6W9NKj7LQ
p2690
aVQI0PGXbGkIdInOOBeq6ieQ
p2691
aVu5Wuzp8uC79IuCglLHXpag
p2692
aVP6N8qIUlu2IEKr1_pdg00Q
p2693
aVKNvqTNhpCq7Sshqzykx9QQ
p2694
aVtzUwZKhtDX7QixvXex-wZw
p2695
aVvLxpEHKZFzv8LYY5eeGjTg
p2696
aVvblct6rMen0wyOqGEy-pNQ
p2697
aVQzDYO-lJhX-wh74z6ajI4g
p2698
aVPyrUtoxrsVDcIw6HbLQTMw
p2699
aVlWk3vNrOIFTbUwEZBkY2wg
p2700
aVkUuMZR8fPZjiCVcwPoNKlg
p2701
aVlqwx4u_BFK8bgd91O-L1hg
p2702
aVlPcKVCwnnx54lJR5BXFbKQ
p2703
aVxLy3aWEbtpoUSVdjuHBS0A
p2704
aVA-IqLvBfU5Gr_b9HVLETTw
p2705
aVUda-CqNfow8Gh4rgtdhJZg
p2706
aVbWfwTLWvrGd1LPwDKzq1WQ
p2707
aV3zPlIl3EtYAAV1EG0kPg4g
p2708
aV3D6Uck9QSdxZKFstf5DGlg
p2709
aVu8ndOBCi3qVK0QISbIzmuw
p2710
aViiUu1e8FNkfoSBA9JomqdQ
p2711
aVh1fOnj8ofEmKM7U9JdCcGw
p2712
aVBV9R4SI7Ng2JV4nQk0WMwg
p2713
aVMEyguHG-U-Fy1qkK_Yf_FQ
p2714
aVLbeJgPgKKHw5qH0f02NHEQ
p2715
aVtyCIs0pyyw36apAXdR26WQ
p2716
aVgHngt6zpP683GKe1i23LUg
p2717
aVrmmIC5szAimxRnqQx3RUQg
p2718
aVK5jY2W5Q3eNnwssV5UZtow
p2719
aVpr_A8tTVZyWmwWwNU91iwQ
p2720
aVWL5n6c5FZWTdsLCE2GoGoQ
p2721
aVc9UmJiX2G7hKMpivZ3h1oQ
p2722
aVqqop0eM9UQcI8uRRIWOOKQ
p2723
aVgvp4HXkcdlqkLZd83qxZpg
p2724
aVEZ9Uf-lSRtj1fvdMQlrwAw
p2725
aVfYUS9YkYPccCx9eaYc9t5g
p2726
aVk9pQa-48qARibpa-Yf0xYQ
p2727
aVK04Pbn_5-xNidh0-xkI9vw
p2728
aV60z9ITTVJn1QnLnb8tyTQw
p2729
aVp7v-DfJEtZI2WUvLP-UO-g
p2730
aVirsqHZvvMdwK5iM3mFZ5Pg
p2731
aVtd4tiWnfeVoxIClWjZmYAA
p2732
aVyrQyg1Ap8EyxQ1ulu3QStg
p2733
aVtLCDdztam3QQ0xdET2u5Yw
p2734
aVVXUQk-aRtFh1IExLqwtMrA
p2735
aVJo-FI_CqvUgnupd1JSoStg
p2736
aVFgTzITgrmvrZqoHvkTSDzA
p2737
aVegxK8E9T6MWLxJyD_iCIVQ
p2738
aVkeOzwoc28Iac5mA8FD93uA
p2739
aVY4UYb1fgs7bLbSp08amiBw
p2740
aVCo1cnSA3o3sSNdsGbItXSw
p2741
aV7Qpn2DvgIUpOJQdI4DXETQ
p2742
aVehtDfDwcOBghAKAjgWlg4Q
p2743
aVrDSw_6HEAsF6wmcUF6ZZkA
p2744
aVcGtl3aOeXXSZ4xhWiDlV4A
p2745
aVpPyg8s0O8JB7bDCaCj398w
p2746
aVT-4MZRvKlF3VLDcjCqqFEg
p2747
aVgbLMIGbBx5aGmV6F7Yp9-w
p2748
aVuNBVnx12y-cRYSxukmTfnQ
p2749
aVZ6_gRH_m8FQlKgsNkZKmTg
p2750
aVym7uH6ZpCfKQ1Of7eaYGCA
p2751
aV5cWPgytHCuPq0poBz7r5sw
p2752
aVDzviZnBOgPD3YTnBCDEM9Q
p2753
aVhsDkxhc-_YYsVqAeQBJJjg
p2754
aVOohsWZ3A0bo8y6N6vi6ePA
p2755
aV53-Y3Jw20QV6TeDkRjSyJQ
p2756
aVcJREFoHP-dAYmwDzfWOHbA
p2757
aVhHgSUnDB9yIrxUEMSmsdoQ
p2758
aVVoeq7aGDmCGMjE_SQiHwRA
p2759
aVF-X6fPKAPSoMShHXznxJfw
p2760
aVEVjwTJ3boXTve0hTTFxPJw
p2761
aVQ5bysqWbnrahbf4R0OTSKg
p2762
aVatu9bo2flyoM3CzihE-OlQ
p2763
aVPAE8xfgJgaiqSpw-1DJX1g
p2764
aVwGUmlG8Vy2g1jMx6fKtIkg
p2765
aVF4k0RVMbEPfo5a372q-m8g
p2766
aVaXWN4oH8W-MVDchWia084g
p2767
aVQtiW05WWmBv8MSpGymhcsQ
p2768
aVwFLt8DNjXITHusXlyBCAOQ
p2769
aVdlcGwaX1F88eFbAP_YYE5A
p2770
aVwQt02A5yue6S0ujGZUQerw
p2771
aVZMx9_sQydPUj5KGvcm73Sw
p2772
aVxjViuMrrApPM6Rnz8ovOVw
p2773
aVOy228reHc1KcnY7qiyW9Rg
p2774
aVckbDWYPT8TP7etP0WHU2Yg
p2775
aVQs5fQqmc_yWmgZjHcadU7g
p2776
aVC3D5ww46iTU6LCWgSwM0vA
p2777
aVVVbp-2Bs5_MGrjboTwpSRA
p2778
aV8DFecBZD_b4CAVhFLBp9hw
p2779
aVdHiq1JliKgh_3z-KnTpCaA
p2780
aVoxxcmHKPb7jqVP15zC0j5w
p2781
aVEbxaQO95C7PUNTmokE70XA
p2782
aVeW6HLU-M3xJOpGyKLrWxUg
p2783
aVP_Sv7-nv4FhrfS8Byldnfg
p2784
aViRhB506lbc0kU5289zyHzg
p2785
aV8995N0iamENbaMr6lKcqUw
p2786
aVFZpyIiCAsr7Twkw4tQeqPA
p2787
aVAes4MuZLnFqglFJNMZxRbw
p2788
aVmEOVr6mU6RSGqYtLzqf6RQ
p2789
aVtdLzywYXCOmskX95V53G5g
p2790
aVfYqr99HXATERIGXQmjSgmw
p2791
aVyOM-OLQExaKHdrHRIfcBKQ
p2792
aVx9ABq0u2quurwRYlVDydVg
p2793
aV66D9bO-p8FG01OfmfX14LA
p2794
aVsH3zUEyNXNYzuaU9UomKqA
p2795
aVfIB2hpMHSJEj8iCE5qbDuw
p2796
aVTMsq0zE6AXioad988gnMFQ
p2797
aVcJF_93-5f5IflEFTlN4Viw
p2798
aVFd25lEnclIwyWlSRgkbRfg
p2799
aVvpsc8vfnkaEd7-49_lz9Zg
p2800
aVyRTwPIAjJ5u7Nqg8TeeE7A
p2801
aVhfuLh_1ZFZZ6kDKD6Fs-nQ
p2802
aVdW79jPJVpzlTKGF-1JAsaw
p2803
aVhBJ0SZwpCX5fvJPyxFy83Q
p2804
aV2hOU75OoYSid_aMUEvjhVQ
p2805
aV9ScF7Bl_XXKBMjawtuBvNQ
p2806
aVLmNKCVuSK-asJZLfwCuZXw
p2807
aVJkWRqZ2gSYDdt8Dw1E8oyA
p2808
aVsgnqFImVFaWEJDjYz71m0w
p2809
aVoVuZtlCFg_zF090Nhtp0Ow
p2810
aVK2ERyKWy9hTfKBcyAcShOw
p2811
aV4GUXkFjJL5SEZK-qtDZSKA
p2812
aVBKK6BdsJLPQufoC1T-iu1g
p2813
aVoCxmsvKbLr2Ggj31XjR-2A
p2814
aVfkAULO1mtAADS7CUazOGvw
p2815
aVr6JuhqakByGOXdwii3Sa-w
p2816
aVUh6EhbFKgQlhVpfvnqsfHA
p2817
aVz2xI0svMY81LAgZaq7a1fA
p2818
aV8B7A5KqrrbxOlCX66hqfOg
p2819
aVdfAWV-VltqFxkhlYu3PekA
p2820
aVzZ7KDK3GAkBUZzsaqB1A4Q
p2821
aVD3YLbIsh7vCx01DcPnnt0A
p2822
aVyKJCTTGgUr8IHyQDk6NKfA
p2823
aVj54J0Ky4ruVbN_NTJ3daFg
p2824
aVR2hVz1386VvoPFLdUbJyDQ
p2825
aVdAa0hB2yrnHzVmsCkN4YvQ
p2826
aVFTVZYUvQtydyO6rQbOFPTw
p2827
aVyt0IPg-CURvYFRcmXU1V3g
p2828
aVe1UamnCdP9DdJRF6kOk80g
p2829
aVEQ-i1cvkycAQqAsMoQXduw
p2830
aVLfauu60pCWaQ2nuGCgW_eQ
p2831
aVEf0WLuzSbnSuIKu5i-Z2_g
p2832
aVCvXyhwQTxonPR77NjOh5yg
p2833
aVxnmQ1-YwnQJiV4zrP2LDuw
p2834
aVT8-13dD8mV2qUI53wsUL6g
p2835
aVpU7HJcOFaZHhaJBfl5zxRw
p2836
aVminFxQJgD6lyHndwU-_IUw
p2837
aVXdoqt46KMRBiaWWMa41m1A
p2838
aVkmq0Y15icHK36kpJyho_Zw
p2839
aVS_VoH2qPxjm5l3MeuCgunw
p2840
aVEg_M8eeu9SDEdbP7iUmVbQ
p2841
aVQRVE3i86LxECp7wxylOYgQ
p2842
aVNcvd4l3zo72FUK5kovQhYQ
p2843
aVw-C9LX2gMSCHZzmrsHWrsg
p2844
aV2VnPnlU4pH-3TyFf436Wzg
p2845
aVRrSIsGVVLWY328bGjQnZaA
p2846
aVvMH7j7Hl36b0gmdFWyZXpQ
p2847
aVTY_kMmCM_3JSs14NFUvO_g
p2848
aV8L8QlR4XJeAblTKCqoDP0A
p2849
aVU7LDMV0FXTuCPPBRnECuGw
p2850
aVC2uQIDpzEJu39JmGd_Cw3Q
p2851
aV3TqYbuOC5j7s2YatXE9eGA
p2852
aVAuOkeVkc38UaZeq-u14dCg
p2853
aVlK7gnWVs81PI1XxeJ7DEPA
p2854
aV0aC1_rN0scdHkAy_dDSMWA
p2855
aVCbwyXSyieSM3kO7brRlyHg
p2856
aVVnQFNN_3wJZhd_EtMsOL7Q
p2857
aVsbK0z-92w_tVf9ryZiygbQ
p2858
aVuO_OX2DXmzo2c72YpbXe1A
p2859
aVtxF4WKY3P2hF3i6VCRD8YA
p2860
aV7pyBqVHSq9uE3aODO_hhTA
p2861
aVwbKGU8Epr2jKX74jWpd4Aw
p2862
aVHKzPwCmhz8sLDVCFQzmqUw
p2863
aVu0F9WJbECpg5fEesAx94xA
p2864
aVpxlTuangM_lHmQqx44RsaA
p2865
aV45wDLpgW2BFrCRqlf19Efg
p2866
aVrhEV5HowwKBXTopJIxsQEA
p2867
aVEg4FCWK8MEbqSGoPbWMuaQ
p2868
aVF11rn41dsHTz4vmv-xyzAg
p2869
aVcvLS5XdoeNluAiwBBm6opA
p2870
aVQ-OwNX5j6xDvX5QRFEB9wg
p2871
aVh14GmWZ8rXum9fXF__wt3w
p2872
aVt6OSEZiX-w68k2f3gR47qw
p2873
aVrQ6C54q1N2iq9iDKSA3QGA
p2874
aVdSwOo43YKAIvp0PjNXdW2g
p2875
aVxcjEnqXQU4a6FfomtQR9tQ
p2876
aVj3IBjxYKwh__BhA25KDeZw
p2877
aVoP0GoJcjFmxNAmf2y6VilQ
p2878
aVc2YDEpYQ-2IqB57tN0HKbQ
p2879
aVui4fyPJ_HRm4HPkEmIHQOA
p2880
aVF8C6rgTCNcJNzXqKU6K9SA
p2881
aVlRCwhpWdNQWHd23kDaSqYg
p2882
aVqYdpN-NsF3pEioxGGjbKMQ
p2883
aVm6AvIcsMjTnoMqWywpEBqQ
p2884
aVafXMX5llxcMFzbaPaBBm6A
p2885
aV5-wiVRTpKwhz2wKxNS-JzA
p2886
aVf1K6hzQecl-sJFYRUHvDDQ
p2887
aVBNeS_hZfmdQWsqewj-LuDA
p2888
aV_-Z2zPiuhw3V2RixPZ89Cw
p2889
aVHzOYnyPrh24YONMUecuzlg
p2890
aVv-scZMU6jhnmV955RSzGJw
p2891
aVr78AHYzmDKDffJAwrB5aIg
p2892
aVwAcmbZyRSwp3td-4Z6BvWQ
p2893
aVpgK0mBQLth1C3DubvmWH3w
p2894
aV_laY6Ba-VWXCR6xg7LVtuQ
p2895
aVZfiU0tULRlH_DasCpi9Sgg
p2896
aVJX4FbGhaV0EzAESPCQZGBA
p2897
aVBxHB59eoHU586fkffRv3Hg
p2898
aVh9jF_8nSI8uYU7aTIkaW5Q
p2899
aVYF3MsPifKWOMZ75TBFE13A
p2900
aVqihqxBCgXOPf2c-QxaFibA
p2901
aVwDWKQR2psTIj4BZ0mf01Gg
p2902
aVbsXRu6wXmn_pRAGToCEPjQ
p2903
aVHyvavSam_sME5Q3O3aR2Bg
p2904
aVjHMQDeI-DwVl3Rth9ycxdw
p2905
aV2NLyAZne2fH5zTHSBin92A
p2906
aVVUDwlypqw1-DTK_lfEP4jg
p2907
aVMu4RYS7M0iGpkQ8bgzsEqw
p2908
aVrSO5PpuSbrSTonAeGcgoYA
p2909
aVQVboXOy_hrsDqg3XOJK3Pg
p2910
aVEXF-imcOSptiuzlirPjljA
p2911
aVQIELh9m9aefbDtIL_mOsMw
p2912
aV6OLwyulRuqgghzYBa2TabQ
p2913
aVy6uOL03ph3NjTUGc76a4jg
p2914
aVb6WRBVDieqwei4wC1rOsnA
p2915
aV0xxW5PmeFV1MWkvDwU7XaQ
p2916
aVSK3Med3bCnzwN3xm8vQo9w
p2917
aVFFsG1lhnKz3_xyB2LyCXpg
p2918
aV7dD33tgzQ4S1vfd21dv5Eg
p2919
aVNoF90rswXBHESSyDaWeKKA
p2920
aVqAzOcHnWerREl678su-p0A
p2921
aVVK4HFYuo86PqBK1XY6NJhg
p2922
aVo75ipeJO4E0Pfvq39jwcQg
p2923
aVCZKkoMlqu0N0zCFK-3T_Fg
p2924
aVjUatA3vF7cOA45mVxDIuWA
p2925
aVWC6y30BJZ8CLjJXDL_jaKg
p2926
aVrcRIL23Tf3G6g1ptFcsD-Q
p2927
aVTrCiLMGy_bxbeAQcuSSUeQ
p2928
aVEDg6FM7MYcNMoqrSoWXUUw
p2929
aV815I4_qtNd9Whd5joLZhAQ
p2930
aVT_ogWFxPzlUsrqER_Na2mQ
p2931
aVff-gd07sG0Y_4i67LqORSA
p2932
aVl5Jkkp-5EF07RrxrqiF6bA
p2933
aVhZzwkAJG92KkszWO8PoOQA
p2934
aVVSNUFYBQ_wOFmRXZ8SeQ4w
p2935
aVWBqeV--xN0OjCPzeky4CcQ
p2936
aVvGPc_edPblKZBQgg_tAoBA
p2937
aVnoCKeynzdlWBQsVsAFZMpA
p2938
aVkYXnTyi3ucyxoswK9bvzCQ
p2939
aV9eeOPBfiQ7ThdauEcivYkw
p2940
aVRSAeqTx82wSZXF6ptK5fYA
p2941
aVcdwJYqlp_NjS1w5Tz4J5dw
p2942
aVVEusQnnMJW6e8wuiW2_H0Q
p2943
aVofXtrtsaKzPpVXFa8fHgiw
p2944
aVK7j0BqmmN6ZEZ4BHIgUcng
p2945
aVxCcg7KsIxRpYp0-Hxo0prw
p2946
aV-7PX_FOoCwktlunImRyZdg
p2947
aVUc2PqdAPWPMxe6_YHB4wHQ
p2948
aVmdpETdI-PdPbMtiAnf8m8g
p2949
aVvx5CbYuuIq_CHxjov5kj1w
p2950
aVl1JDX-o0wCLykuh78R8Kng
p2951
aV_9DqfW3Nv8Brb-1fz5XyOQ
p2952
aVScXWzVisOI4P-g-LoDTaiA
p2953
aVZwuHsufvw1x5rd2c-qyw2w
p2954
aVxwqsbc0rvThKGVEMjPFmVw
p2955
aVw_UCGMgok7N9p0XdYBx1VQ
p2956
aV3v8vcGGeJRZXTGxpeyq0gA
p2957
aVjxNdYI9sQmTkqfpTsmhGtg
p2958
aVAtMx_q5Uok82I5HtQNDd0Q
p2959
aVF2CdVtudYJlSgTAqWDX8gA
p2960
aV5mMcFcZGdktTF8Qfh1u02A
p2961
aVsf5jTm__NNqZ3J5rbcrueA
p2962
aVHZRTSC7R0JWThNTCqVLnsQ
p2963
aVuXft-y53ujmlAt0SH-5KYg
p2964
aV1sZRrH4lZwUzeCJabZEBQQ
p2965
aVeVyEkAUx0BIFf_c1MVeUhw
p2966
aVjDehhKtVZa62k32WHbnc2A
p2967
aV6HQDB-FQlloN7p8MHqSveQ
p2968
aVwxcAGtkUYhC95MIOUK7gWQ
p2969
aVIcHVYlgNGR-Zz8fnceiJ6g
p2970
aVonXIcU_eoe-9tO0K9Ocwow
p2971
aVjlyuxZtZ5M6TlAlR0_c7kw
p2972
aVYH6hDo64_CfCcSBuCAivlg
p2973
aVFX5hsECTZF4n-vZPRVSXHg
p2974
aVfKNUmyXf8iH1c2VbupIyyw
p2975
aVZo3fwmOUaDpKvUhLNp9erA
p2976
aVzzZfgEpwrpi4Ywdaj3OIuQ
p2977
aVuS5BHjGpMDQMTzLfuMVmHw
p2978
aV1MQQZ2kTiBbN3_hpmGdavw
p2979
aVRBiTzpD2em9zKwKTMNFoZQ
p2980
aV6wvFyYQb1DxrhiCEEOVSaA
p2981
aVYqcgdLRoTwS74fPv-ZCRsg
p2982
aVSrzJZMB_WXFAAzBdipKOWw
p2983
aVfo9maH0LHJ5lNtpcfDcpXQ
p2984
aVi39--wZD6L9hm9Lg90Uziw
p2985
aVlBNPDcSvmUbq7W69HvmRTA
p2986
aV8fKTbPc5OTcahMAuJD9E1A
p2987
aVs-KLvUupHmeIKI8y9Nlwpw
p2988
aVf7_AkJ3TJHfxXJdbK4bNAA
p2989
aVX7BA_EijhAWYCNuMiyNgHw
p2990
aVMtViLqobs9m4Ia07Sdux0Q
p2991
aVyqFG1ANsAV6NBn_BC2LU4Q
p2992
aVu6F-dfFQOVVnPTiHyZG02w
p2993
aVo_HnpcNAXstV8v-VN3CoRg
p2994
aVX4QbkHl7pOTVsgLa7XuUBg
p2995
aV37PlKoT60Qfo_G8V2NRfCQ
p2996
aV90DT5MO2X-C2F_5c66DNag
p2997
aVvAyQDNs9lu_8hT20lleGqg
p2998
aVJ71s0xScHVbOuFUfsAXtmQ
p2999
aVRYBGhnFtyZGjlREEfcRFrg
p3000
aVj3IEZP4nQAt7fkxmerLMbA
p3001
aVSWHp9td0gbD6bik51oh1cA
p3002
aVvv769u0PvdQhO5IIBFAcwg
p3003
aV1rZrU5iXF7W-Mq7vPpyY2A
p3004
aVLQFmktF43j2NPncKdNd9mg
p3005
aV7PRse3yCQbEprAj1DWrEQQ
p3006
aVxkgX0lzCY-S62e4Q1mvgiA
p3007
aVyauL5BpUTGukejbJskXl_g
p3008
aVxRRDXfZL4V2-I7i2JLnpIA
p3009
aVf4Fwv8ClqR35p5chZWKSLQ
p3010
aVtT4QuynwNXkXWCLUZx3wEA
p3011
aVmKR4tR1tb5ATFZdp1RPgpw
p3012
aVvm4XXJtH1NPQGQEm17kvHA
p3013
aV8LUKD_9rkJoUIIuT9uiDbA
p3014
aVz1nFepEOkn_Bp5aopscf9w
p3015
aV2cF-sCqhCGzVMJULhNqjBQ
p3016
aVNBeX33C2lB6KMqpbSueHjw
p3017
aVmyJKusJSWeNT6XGm9nBO8A
p3018
aVVvMdpGdwnUCSmWYkNeMDJQ
p3019
aVKowfRkKCR1qYzIM3-M6FBA
p3020
aVNo7l4LinY1tu-bCL97qi1A
p3021
aVwdwODzBChLIh_u8V8CPpyA
p3022
aVnZDIrGshkfLZf6ImQtAasQ
p3023
aVTYZIMuHwhZo_Hizenmf8Pg
p3024
aV9cgrssqswYBSpvBAKc1-nQ
p3025
aV2ScGNlbagqvgxSM_0xQSwQ
p3026
aVU8FC3Z_L_tHEUIvkwSSAXw
p3027
aVqFcK6gv_3kF9Cnhw_cuePA
p3028
aVvKGEEQzlgzBVI-JKxnBn1Q
p3029
aV4revUiH2pE65iffL13LNMQ
p3030
aVslMjKmGTnufGx6ZWR6Mg3A
p3031
aViCpFAHTHWuV7LCBYFtWSig
p3032
aVof-a3UqUN5iz-ttBf0knig
p3033
aV7mU3l5VjH1IxsXcxBxUblg
p3034
aVrdHO0LkiNe6s3716hPuQXQ
p3035
aVpJsJBzOeBIV9pOWMuq-vMw
p3036
aVmJ24zWo_FdE3_9v24sqFiw
p3037
aVDIdvV0HZUMZWiYg4OXyGJg
p3038
aVZkzutF0P_u0C0yTulwaHkA
p3039
aVlNuedAMNPFROMiI0YRTCAw
p3040
aVvH3U-nP1hg7Wr0A9_i201g
p3041
aV-8F04F54iDT6VgWPCgybug
p3042
aVwtfWKqj6B_hFCb2AZhxGlA
p3043
aVGvLgdEWhVWBahZsFiGYTgQ
p3044
aVMA465c4XL7_m9p_6_ztRsw
p3045
aVfjE-jiwnTQysz-rLl6YMQg
p3046
aVjW4-bGuymLGlB9OBsTq3TA
p3047
aVXfgHILSTiFuoK69Z4KOcJg
p3048
aVPGCmPHJdeAREQKYbhBMA5w
p3049
aVEXt8OOwNE2CjoShPgLNdlg
p3050
aVfVo4uithMrIbNYom48b_fg
p3051
aVwZEK7GmLJ3hmkYBiRCo4Qw
p3052
aVp2X4WdGMsi26t_6hN3Hz4w
p3053
aVzuEJKjSkX-4qw8MlEcI0Xg
p3054
aVZMH9VRSRdGsECRjxFYpLqA
p3055
aVXT16NlJ97M6pFKtN_SOQKQ
p3056
aVFpm3WvqtrAg2ueh_4pz7iA
p3057
aVu79pwk276SjCDTnv3mddlw
p3058
aVTl_jT2a0bRMac5_YW65GPg
p3059
aVDVMdl4I80wfkitkemcD65g
p3060
aV1XEFVSf5zdBFHRScvmU_zQ
p3061
aVHb717wjzx1Q7cVXQo1-u2w
p3062
aVqp2w33VUdAJv7P-M9fmhuQ
p3063
aVPIiVJJ4mgiltU-u6Byn2_w
p3064
aVakM4t6P-ssqsRevleyY_Fw
p3065
aVmRWNt7hxoFzo5XZaoSC7aA
p3066
aVPp0YIu7dLU-xfPAOKS6qlQ
p3067
aV_4l36Tgbmoroh3udeXU-JA
p3068
aVrGdaD3j8leOCI0zz3g5Beg
p3069
aVl_Zevl6jj_gn_xVkYpB_QQ
p3070
aVX6Ld6HChDrQN_4X6V_7VQQ
p3071
aV4CE_jyoNwSYkorer13G5OQ
p3072
aVVOvcCzgnhyJ63r3Xk5gvpQ
p3073
aVkE7_pIsUavOAQ9LSRcKCWg
p3074
aVkuJSCQ-bAySEYI3nfu3C7g
p3075
aV6Uv15dNmIxtPMB_1O2O1vA
p3076
aVzBeUDwWx73QTZ34A1l0adQ
p3077
aV3R28YY7Jw_EJs0-X8qDArw
p3078
aVjz-LsE7pZd10iYbCYmGQeA
p3079
aV8B1Hi9253IICz8-5Aw5qrw
p3080
aVUUo3yws6zY3OAEVZbirn4g
p3081
aV7KUbrldK58sIV1K43p5a2w
p3082
aV0Z4__YJxeGnYcbx05Mfw_w
p3083
aVZt2cMfrgRaSbYdC0OSh4jA
p3084
aVg6k8KaDhXcoNlfo-dv-kuQ
p3085
aVIakOnLeTFBvJvcxxBHQq_Q
p3086
aVN9n4bj5nnuvVgt8iyT5YVg
p3087
aVTGgdyq2NqgDF-APuMXxU0w
p3088
aVgcYwWmzzzC4raKZ5FoTsNw
p3089
aVP4w7kxvrr4odvXdyQzXIvw
p3090
aVnWO956JzoKr1uKD3VIkp5A
p3091
aVQLRn67HoGCqi4Dqo2YaJvA
p3092
aV_IAxXD30S4ODGh92m8tLJw
p3093
aVoJsfjG1uh6jopK6Kc-3pdQ
p3094
aVPaU0Z2Zho5dK6BlSz4XjiA
p3095
aVotYQC14mx2XGcPKyVuvyMA
p3096
aVhnDQ_L_1IjCUVUA_G19sew
p3097
aVEJFdWX908N8Yc2XG0Lky8A
p3098
aVYU7KZJP0LsLcvU4eIHhtfw
p3099
aVDq3AZ2f1BffwqRcP44Wh0w
p3100
aVFr5R5w74Xg7sKMlt4PPtHg
p3101
aVbPIjpjmRE_eEOLBxXcHc0g
p3102
aV1qYCUtw6_ehv7u_FxiE8IA
p3103
aVESfy7oARQJaxweiARmP01Q
p3104
aVkiz4xELBxC8tQtr4uBtM3A
p3105
aVvSN3n35-3WPX3Ntf-X6jaA
p3106
aV2cfzQGANxuIGcCUrlwnV7w
p3107
aVbeIMwKKAzii12mS6MY4XgQ
p3108
aVUSOUJ8IyZlBo7uF-2Spy-g
p3109
aVKEaCHdsY7w7CBsZ6h2dLeQ
p3110
aVZfARN3QejrWsDJu3OtRdkg
p3111
aVw1c_Uy60LSDiMsSjAsEqkw
p3112
aVVgWvHMs5TJ2lr0ec2DaMtQ
p3113
aVYROFdvPCaZhSRzYg9u922Q
p3114
aVAtC38u_8H6HR7zT9uyLXhg
p3115
aVj2kjfjODIZyNPxAu1Dow6A
p3116
aV1HtxtLaFgTeerAuF9Q5jRQ
p3117
aVWnuRPyTEvILZKCAPk2UwYQ
p3118
aVqIyj7PNUSA1B6_rOkc8nIQ
p3119
aV75azemjvdMXjzzWp-fZDTA
p3120
aVi-fdgshW3xovHeMZosDerw
p3121
aVpEjXieTk_BuogUhuBTIn6w
p3122
aVQweyhrhpOkvsEsuMRk9JtA
p3123
aVMgrooJRP0xTRnndoSbvvfQ
p3124
aVwXw4gfKADpCrZ7etddmsTA
p3125
aVyGfmwUKrZG4O2eNXP2JS1g
p3126
aVaQKix0iMREiJsFGr7mH1mA
p3127
aVeWer42jEQGG1o8mNQUk4Kg
p3128
aVSrl3TFbOAfa-9_1m_wK6xQ
p3129
aVRThuRlhMdowhtY8vITEIzQ
p3130
aVNdQzxU4hHk25mUoltnw4wg
p3131
aVmw7sClb-8JOHCuM2s6yspw
p3132
aV1mOL0ZVy622lo7hc0f1vXQ
p3133
aVjBhRphJtQahNTWwFt7wlrQ
p3134
aVzXJilaBN28oUdX7Owf0fRA
p3135
aVvz9BbVWThEyK4O_JFtVo4A
p3136
aV7pgmsGEqV7yawGM4b4fRrw
p3137
aVGh752sLvWvzl_n-CHWYwyA
p3138
aVtE4H7SuEBCdF8O-BMAAB6g
p3139
aVa7xD9CEepfivEZAKrCEPbw
p3140
aVtHLJ1pDaaHptb-EbFM2q_A
p3141
aVezRUyWOqbEYa0CecFqIQiA
p3142
aV4-QlcyLqRc8To15oOHUjkg
p3143
aVAanIRR6tCCgIO7OibuvE5A
p3144
aVuG1Whgf-AtEML0pQQp00Dg
p3145
aV1n-HH6BG913cKQ1tX3wQEg
p3146
aVRFCtxMNwO_8ONYnWNDxYqg
p3147
aVZP39Z9C9l47QaiiXlRSrNA
p3148
aVDCnU_ehDedwPMJLKlOECuw
p3149
aV6RmdqLK1H5aodAA8t7Yl2A
p3150
aVP9LAh1yahQqntqTlXIVPnw
p3151
aV3gkqdLgL1Ca0hy1YRsA2Gw
p3152
aVSCDym9EeJT8YUkaqVO4cZQ
p3153
aVKzLjbXEDH1e1WrfzrrzZKw
p3154
aVqibYmQhLQ6E6HEwCcegl7w
p3155
aVOCkD2DMtbdzUCfzvLLbM_w
p3156
aVNvHGOIIukJ4y3iFswY-k8g
p3157
aVYYEm5MR6HMCQYI0k1wVnXA
p3158
aVPvtAsnMf-oeNmkvdwRmEpw
p3159
aV_WsGlZnbXBdPcs0qM2Qm7w
p3160
aVCjCVFZurydHXPAM2Zu8NzA
p3161
aVj86uUIR-sDU7KfXDZeUDzQ
p3162
aVjItwkDeMBFquEb7mAvW-Dw
p3163
aV0Wy4gw8krao9nGq-sHWFSQ
p3164
aVzxfb_EWIjK2rzkSRIboTMA
p3165
aV8cyyRk-cqecyB1ctnRsR1A
p3166
aV25CzbDgm1MsT31NhA6KYog
p3167
aVTLr_AFOnq4TK_qNGRQzloQ
p3168
aVOGVHlFHSXjHuioOvm1wVqg
p3169
aVCUqlihRjC98JKvR8YWkGFw
p3170
aVpYeQ80rPttM6KzMQ3MXE8g
p3171
aVRBDZJkVqB1PrdlyTzfhyqQ
p3172
aVQqbZA4r5g1vCbOxOAKJgWg
p3173
aVJIJz1wcUbFETJUrvm8HrlA
p3174
aVX2lgI8CuVEsH5UDs14rMhw
p3175
aVWfbk7jzfcVanr7KKyQp8zQ
p3176
aVeyuwonjRYH6ZtCHhORWyFQ
p3177
aVU3_446QN2gdF87stGCfu1Q
p3178
aVqXGKYRwCR9SLgLl0g_9o5g
p3179
aVmtUscPpaEpOpdBWDGXuNcA
p3180
aVXoXMsSRtZVMiDVcDIO5RiQ
p3181
aVAUes4OUyO4moaB6WPi88cA
p3182
aVq7jC-6uH7IieKu8PcT2gBA
p3183
aVN60yOH1GpH8wE9kln7m3XQ
p3184
aVO40nlfiMpWAKgMx7bH9h6Q
p3185
aVM-qtsg3fVoG6sWBrDz4-6w
p3186
aVXOSRcvtaKc_Q5H1SAzN20A
p3187
aVjkJuwGa227qpQjT34TrECQ
p3188
aVBzXtEUHu86ju9ttE-X3saw
p3189
aVMdR6htOIm-LF051qUCKmGg
p3190
aVYcXp3IMt3qgmCH5-oyXuOg
p3191
aVkeJOgdHUWFm2d08qFk3QsA
p3192
aVr_8ZJXfVrdh5P4SPt9WYKA
p3193
aVUDF-ISFu8lIZDyWvoR7nLg
p3194
aVaPOjdQgYk5gS9YbhOGwpwA
p3195
aVpCLcxHIpJpTGONOJlQnI3A
p3196
aVCgdzp6-2ehmMAks-ZrI3Lg
p3197
aV7l-CCyNnvT86GMR5EtYjog
p3198
aVcNCXUYQd3kFR_AyfjTejQQ
p3199
aVWXXHPnQ5ADn3mSbFmASHug
p3200
aVia2QAAxIyjpyr99926QrFQ
p3201
aVJZEw18_OhSzFj0IfXF6v6Q
p3202
aVi8RjMsoLoi8kJwWKhFeOIQ
p3203
aVZfCzpZNYSWeA3Ouku2eqlA
p3204
aVB-n5YjebVdvt3vl70OGsRw
p3205
aVgAe_dOlcAd6tEXDUXNiwOA
p3206
aVMpxcquEP9071fZqd6O19IQ
p3207
aVXxmziAeRqMKwsDjyyjVgeg
p3208
aVNgYQvMLzs2lbvQGX4cMWIg
p3209
aV88RpvqqXf6TYnkcBHIXlUw
p3210
aVjZARZjPedelwxgCmVRgBQg
p3211
aVfykyDLOPBKphKy9fmZ4Kgw
p3212
aVYf0rRaOWWGrqvTQ2B3dE0Q
p3213
aVLkcGDfznt-QzjL22fO3F4Q
p3214
aVs9D5aHnOTebfzcBLIPr-Zw
p3215
aVHPX1pRtWInt_UVtfld-zsQ
p3216
aV59h0SyMyfMoQ988sEsjfEQ
p3217
aVIhjrIdQkNgXIobdKg6eFmg
p3218
aVpvoJj_qlDAS-mcHj-SUWTw
p3219
aVM-uo9HTEJEx7cS0eCsQyUg
p3220
aVzdVDfA4S1EvkPUlfA7eJfg
p3221
aVefK5mjVPxdmqFZT06S4dzA
p3222
aVwunPCykUm8A9FXvsRt-IlQ
p3223
aVRPe_cSOxq_qkG-LbxBlOyw
p3224
aVGN1MQK04zcS32HbY5Y0Vlw
p3225
aV69RyJsThRTlyuyVbMexYDw
p3226
aVy9EJ_mD_gc6z5heohULU7A
p3227
aVw67o_AhcSU_fjVOTlbquXg
p3228
aVdCPyV8XCEyE7pyUgzOCDKA
p3229
aVnbKdzlGl5Rl6lB8F5g97ag
p3230
aViDHWqYdaTd5cHjppBdg5Rw
p3231
aVi0fAxbw4h4hMQYcitrAijA
p3232
aVyYyAdIxKBvFbUa19Kymq_Q
p3233
aVSV8y4bp5HmgURzvUC2Rs9w
p3234
aVVUrhzdgDpFi1K6zl9VuizQ
p3235
aVbHO7WE9WgMT9USSr7ZI9JQ
p3236
aVOHuo-yqHdtJMAnkNLyp34g
p3237
aVp2Nr4d7-MS82opzRCNkbNA
p3238
aVxTNtyQsPdunuGAIcn69J8Q
p3239
aVP3Dy7GF1Sw8RrW1Dd9ZVjA
p3240
aVdyaSQBKagPYylOJxsU8CMA
p3241
aVbftSQN9eaE5EQBe3ZztN8Q
p3242
aVA-FEhlzyCp0E7Ryxqq97fA
p3243
aV_PKa6Dj06Q2AHKGkpJ7GnA
p3244
aV7odNqxZDSR6ZVgxjp2r39A
p3245
aVjNL2MoJI0Ps8hYVktQ4lkQ
p3246
aV_Oe8NDjmeYkkHFs7f8CekA
p3247
aVZARPISrzPW6PrMSwexHnxw
p3248
aVjVaDrytDdOmkQX9moPWHTA
p3249
aVsQe4CqXpC-kxu3ErbYgXkg
p3250
aVjppxrDQLXr4Nk8cV7IGlcw
p3251
aVWymLKyWx3t9V3VfI7itMtA
p3252
aV1h8aXynUKXUJM6Q4ZXcwyQ
p3253
aVuu-1sfZZanZRdxhX4p_sDA
p3254
aVUbeQgHI4ztjWXsYYeKvrtA
p3255
aVhz8mFMIQxQNLKE5rYmg6zQ
p3256
aVxCyPB4N_JDd5IQi9DSjpBA
p3257
aVfcdPeNgNxcgYpz--01inLg
p3258
aVpCwOCE-cycl6cMEa9O6bZQ
p3259
aVcpRiIxqubDa4JV58ZR7-cg
p3260
aVnkM9exy9vHB65VZH8k4FKw
p3261
aV1_Dg-GguWatioW4mvFQKQA
p3262
aVgsgiyjbBs6hWfxQ4rFeEYA
p3263
aV1XdWZTPXPRRaE0SsEbHcQQ
p3264
aVzi6cB_bkswWPLD2k3IVtyg
p3265
aVV4NwBv9O6DWTl36ZKZrfpw
p3266
aVVSZfpOFWhK4RcFvn_Ay1ZQ
p3267
aVP7IaC5I7nJf7OTupZzHeng
p3268
aVPNl8R1SmXXgGU2ThG0qVbg
p3269
aVYjmbCvygeMj9dfJp6neQ_A
p3270
aVvXEZ-r6fah-5Fjt3a6c-Gw
p3271
aVU8L8Xso7cMpNmbFMXm2V0g
p3272
aVT2jCFJO6DjtWIXkI1lcaOw
p3273
aVoNbHWBPd4O8unJqBi_MNDQ
p3274
aV3F3At4YBSHEnG7uMinQPnQ
p3275
aV_I-z8EJ8rpXMmjTuCr5oqQ
p3276
aVjur5JyCaELZrYu2_EwCDhg
p3277
aV3cwgVNwiVX3gVw2tsgIaWw
p3278
aViJkKi-5NqRN1PhdI4KqjAQ
p3279
aVbF1BnDBMLDeoJw7ani315A
p3280
aVSmkYLXEYhzwUZdS6TAevHg
p3281
aVPccg1shSg7RQAXedGHft1Q
p3282
aVGnPXUkEvX5M0YR_PVGhWgg
p3283
aVl_pR3x7v2mvE3luVdmGuoQ
p3284
aVqCq3JGKYMFq4dqFjtuF7DQ
p3285
aVsm5Sl7z9Kx1yXExrdGuZ7g
p3286
aVw2tr0PA0b3tg8pId0kjM-A
p3287
aVCNklj3fFmwXL13AyvjfV5w
p3288
aVrkGuqKxFOvxhAKaDeFVd4g
p3289
aV1FDhJNAuPXRGbMi9x0muGA
p3290
aVhZ14E6vezwusSZaF83WlxQ
p3291
aVe2ng0CQ69anIawqIKzhtlg
p3292
aV4jswtizEiT3-ZMauIzWXxg
p3293
aV4kSPF50JzRQRfOxTViuiCg
p3294
aVrn0GU0mB6LYakXiky7JqLA
p3295
aVmjLu2vhkeKKnchtqkylCbQ
p3296
aVR0X7ohGqCtU1TTDK6bERjA
p3297
aVPXKjfPxjJSykV3vN8GAoBQ
p3298
aVwNnPxpAOCBk2N1KTJ2PDCw
p3299
aVvuDL_d3GYAtbvX9EJQqVog
p3300
aV0tsl6aGhI-4nJgeVRfC3HQ
p3301
aVF0-xC1-8aVxF-VdAcdouhA
p3302
aVpFmuMpPANaAFQ1PGVv1FeQ
p3303
aVPBmMvDows5HWIqrEVvNfQQ
p3304
aVIn8gjAPQ1eE2F2OMY0H9ow
p3305
aVBMR_AsSBzTQHqW-SQabI4w
p3306
aVsid1Wu5Z4v6yiHacGZdUeQ
p3307
aV0VDcJitRHh5uJnkjymu_6A
p3308
aVhQ551hmTLbxTuMRXYGRJJg
p3309
aVVTdnlbOkEKWSsu_pzhInTA
p3310
aVO2OYKd7YYq9tPHDzKpI4SA
p3311
aVnlVjdQq9FzdQ3bfy-8y80g
p3312
aVqLy2F9EzCsFYIKd40OJvZA
p3313
aVTvL29lvPQU5GtPEN-J0wIA
p3314
aVwp5FAtCGMyU2RnQ-7kxKHQ
p3315
aVaSb4vkaMh7K2lHhnV2UIag
p3316
aVPWvPIzCrWNYGSiFxOF_Zfg
p3317
aVr3aaLFas48VMm2FbYgzwqA
p3318
aVFRdkSUgC_SUPPNUGmgBtow
p3319
aVqhuuWs1eshxEHhTSfGV2rg
p3320
aV0tn7GWwao_BhZJeTWkwcQA
p3321
aVQqGMtc24VdCzYAajw1g4bA
p3322
aVYrFYBMWnRWkRpy9XyMfMRw
p3323
aVv3rXLmTCX6ZFR6kIYTY2fg
p3324
aVYJiTSFne6mpbKTNF1hP9vA
p3325
aVIdow0ymZ7ptpoeVPwzqOPQ
p3326
aV1dYpffQi3qdh-dkXF4LZBw
p3327
aV2A9gJkmWbBVoh6kK0jDlxA
p3328
aVJ0UG_QARO4bwYlxfosP2aw
p3329
aVWtO8eoYmrc2_8kuXanug2Q
p3330
aVZJjcyXWPg_d-jx7obAtitA
p3331
aVhbipF-PtqC2RI70Aqx4mlA
p3332
aVRMn2euwrbfu6fpomjf31qw
p3333
aVLqT5jDt-_qkW5-Pwg-VUhA
p3334
aViofGoeP8tLB7Ny4GNfjxvg
p3335
aVEWswCV97BBb0ezXRZhCoOQ
p3336
aVC1gj-EqhSZ1BcCejDyV-fQ
p3337
aV6dDItJbFIwYCmoLZF3iTcg
p3338
aVu2s_aIR9nBJnI4AiCpCyFQ
p3339
aV7yjfcioE9qMhrk-zlKu0RQ
p3340
aVbjr8Uyi-r6xDeXVAhSX-cA
p3341
aVv3BLVPLRo2Egeak29B9lug
p3342
aVOUUVI57dNL-1UJEgbTM2rQ
p3343
aVKTuop99F-mrV5_1haXClbQ
p3344
aVhG-DApl-ua15fbIqav7-IA
p3345
aVGpwuGxGPzB3NHq7bxZnGbA
p3346
aVgFyntTks-Qd5CjDU8_2Kog
p3347
aVijNQXC2cBhbkf6iB6D8OJw
p3348
aVmuFJIZKZwbAfy_pEFKF_pw
p3349
aVVT8vUd-2s5IdvSNwhNHkpg
p3350
aV6_I6OKHIGpLuBdvnqtDuog
p3351
aVtPAchZUpNWeWCpghn8qjzA
p3352
aVQIy5y_CnXcCGuvwxo79VWw
p3353
aVEEAtafGPtPhwERoM3onXuw
p3354
aVqWMGMCPQoyRq7NpQ78ntmg
p3355
aV-7H-oXvCxJzuT42ky6Db0g
p3356
aVsC2R8zbTG7UpFN6EyStUWg
p3357
aVRoSo1r-ATvtgxd6sNJvzpg
p3358
aVBty8KcQAJb2v8ZP0m9rLbg
p3359
aVMPbzeBX4f98CgK0ih1rLVw
p3360
aV1RKD5kqYzFcJGor2g6dBMw
p3361
aVM5Dc39uXDsFzcAGl_ijDzw
p3362
aVWoiOpMEcbAfOqNYXqDwm3Q
p3363
aVn9PgccTPsLxgYL6ZCkxDMQ
p3364
aVo5TT8SLFHtuZPJgfGhgROg
p3365
aVXz0HTTnKuf1BW26CmKA8CQ
p3366
aV0EyRe-VkW8gYxxZ7NCQXeQ
p3367
aVT5CdfrZWw-uW9Y5L_sddqQ
p3368
aVKlmsNi7qiQgC6yznyA0M0g
p3369
aVN8FdrKl0y_E_mUOj8VSFuA
p3370
aVOQvChaBImI8X5B3aai8btg
p3371
aVyPcAdikNrXEsfbHNBQUjkQ
p3372
aVj952hSqmghmrDALAKMbdCg
p3373
aV5nMvlKW5n2-O0tT44DYnDQ
p3374
aVm_zeXzkj3btfvRJiPVw8Ug
p3375
aVWB1albu5FvNP16BAtTIIVg
p3376
aVgczGHQG2cNIRzQpc9YCl6Q
p3377
aVEHGKrUgGpxYpfs4N3paJ1w
p3378
aVevWjIBX1XbGHVfs6x3dr0Q
p3379
aVzzwhN7x37nyjP0ZM8oiHmw
p3380
aVS2icYFHPsV_OSCvbI3YiTg
p3381
aVVR01T1Y7GN_swCkY9TmD9A
p3382
aVeVCaX_hbNVFjM-XXahovYA
p3383
aVP4lfCI0WSaVoA2VFdsZRiQ
p3384
aVmJAqx7wK33gFt4MjN_1aDg
p3385
aVmdKSq2mfp1M8tfbjmbyv4Q
p3386
aVk6zl_3rFNH5OVare5n9Qgg
p3387
aV9DxJTxiTJQdWI85MahuWPg
p3388
aVEs0JayHVN_XPn1q5yFtn6g
p3389
aVTcCWYYL6FxBTT6KrxabwRg
p3390
aVG4EBHnNSTWsnqTzxdiv5VQ
p3391
aVNuFfgfXL_0OXFZ93oABgUA
p3392
aVC6P4wUTuDOQNwCL_QrYapw
p3393
aVmDmvPyRrqS1VAzYULxG3Bw
p3394
aV8vzMRsSIjkdjwq3u190ohw
p3395
aVSpDSWxO4rLUCRAa3K6wC1Q
p3396
aVLb17BCffIA3kLXMjA9UlgQ
p3397
aVtetKWtLT0639lqnD9QJRKw
p3398
aV7l5t7Iw3qauVoSSrM6jm9g
p3399
aVUTodxk-Mjmvf_Zc7f5pdTw
p3400
aVbAWQmZgMggH4HTJnVcpLPw
p3401
aVHmI9nhgOkrXlUr6KZGZZew
p3402
aVby7BOr074_BKz7hkRIi9WQ
p3403
aVBf-yMQiSmDZyqfGyFKQ0bA
p3404
aV2ijUbDLJRuVtELXdFFzzyw
p3405
aVb_XIKJ2nNzksuWhfMTEehQ
p3406
aVoaTbZh8B-IVFEwbzJcIOBg
p3407
aVhXmwjL2LeWlsZCAGRUrP2w
p3408
aVJgP4jfub4YWf1ErdaRAmTQ
p3409
aVQqpzPFFHeHqyWSPZI-DkvQ
p3410
aVnXlKHnArL3_vugmnytsEYQ
p3411
aVbQ-sXUqPSr4-iJfB764Nzw
p3412
aVlnd23oqCb7v8lt9zd4K8sg
p3413
aVy19xFolCozaRA-gGmHwkQA
p3414
aVK6-LBrSl_NopD2llTIKsUQ
p3415
aVhcryG9RkmK9oCELYLHukiQ
p3416
aVGghMYcxRa-idHDb6kqP4BA
p3417
aViMkmThdmq4pgUu3MQNeOkA
p3418
aVwtDLILBaj5BGEbYvWGfNUw
p3419
aVrlFEKTaUgQqN4O9ow3LO9w
p3420
aVX2X3n0PutSNonQQj2cjsCw
p3421
aVnXr2CBXYxdXYm-tWn91KCg
p3422
aV62b0uHo9uaSsoOMQFG55jg
p3423
aVmpu9vXwm57D3IKuLn13zjA
p3424
aV0Q0v-eDzWtaySg7cbVi0yg
p3425
aVfZGTgKUNKKuOKC2tg4pQFw
p3426
aVqzoU-cWWf32ILdd3Xi_ZgA
p3427
aV2jqUYcKMYZXnpxNTkORJgQ
p3428
aV0VUbtKyg-_2Y4T1ct2KUNQ
p3429
aVckZg3KVwR9FrAR1KtTavEQ
p3430
aVafdthOntL8hfhomIFX-NWg
p3431
aVDHBDTikebcLpCzF2LF27uA
p3432
aVRvjO2u53pbFv7uCufPvNDg
p3433
aVZMvs7F5pGh-A4X2j9_W6kQ
p3434
aVdBCDRobULrxeSDvQyudcKQ
p3435
aVW_hc8EBepLQNbo-OpOW4Og
p3436
aVsMJAUZNU6u4iNvpmaLgx_g
p3437
aVX47pt6a4ID4aM2ONYdSW8Q
p3438
aVQJS8r7COJYqVSzMGO8Us5g
p3439
aVmchIGapc-1lRQKcsZhD93A
p3440
aVetO9sOm3q_Od3NT-B7EXDA
p3441
aVECtQU_nN7OX1xnz1gujGcQ
p3442
aVerr0FvoRGGSqORd8WRtppA
p3443
aVZXqiETQpe--0ufUW9B1xCA
p3444
aVguQww9yGHP7rRTea6zTnDg
p3445
aVj65Mnw8aFJkYgkt_UR5BOw
p3446
aVHg7A3RVz_J7PHGmEqPOsxA
p3447
aVQtyvwZi6JiloDNEEH_ZxLQ
p3448
aV72s7cTvPgI_meydNhX-JMA
p3449
aVX_3O5pHSI-w-F5yMJOldlw
p3450
aV2UCXCbv7qaO3d8FfQd4Ing
p3451
aVjTlcLfsSDGnHcbjL1aD9Zw
p3452
aVcGQKUOAZm_VHcQOJWbatog
p3453
aVcHcYk5bJn3Nh9ARJjQVq8Q
p3454
aVKLOE0WHdbTzF0VNs802fJw
p3455
aVaKMpYHAW_949EKIa8Xu6nw
p3456
aVt5brsnbGm3STdN4zrhZtFA
p3457
aV80zlpfsStM8emhxzHi2kXA
p3458
aVMrlNl43mM8Y259tKzMj4Mw
p3459
aVNSBiCz9CRowb6uwpC3vZrQ
p3460
aVdBtoic8Pr2isipH0O4Nx1w
p3461
aVy4CE_4CHTWZ6oe3JCH-AoQ
p3462
aV_XAoV-292ygR5Wb4qssyDQ
p3463
aVHfOQdfvijWVWMFgMIhVuBA
p3464
aVrYJfzt9edY5WVA2Gt9x--g
p3465
aVvXhlnFw9k5ch1GVFOlddgQ
p3466
aVLk0nHB0ufrY3Vx_L39dL4A
p3467
aVT94qlaU0F25I44GuQsxJew
p3468
aV0PtNw7RgF4JFcPyP-LqZ_Q
p3469
aVg9otJ_FZ3D0BxqTEJetuUw
p3470
aVZ5NhdlLCu--leud_OLcvIA
p3471
aVDF173DJmYY6NqWa5SSiK4Q
p3472
aVdUpQASSr7YfrfW1sB9Y-UA
p3473
aVhyc5Cg9CJS_ZBuN5OBnC7Q
p3474
aVr1bQO_ChWm3amIfTsRbO-g
p3475
aVi1QGBziAXxEWlofIe4gv1Q
p3476
aVQxRKQ_Lzu4lMOejwVgcdAg
p3477
aV9dnFUsbz_wAI3sz4Gb50JQ
p3478
aVszlIcLQE7K-1JuKeJIRKsQ
p3479
aV0v7DIprUj2KASqg5PwqhUg
p3480
aV8aykSzSqGPYUpMQbO2DPdA
p3481
aV0OkfU0vDBprsIEd5hWuhAQ
p3482
aVEBwKRtjNeTjA5viMpc5lqQ
p3483
aVwMCKPvpwktDF8mTlwcr23g
p3484
aVqQvHYQ1uocuEnFcUdhxV_g
p3485
aVCdRgZ-4KECfnaD8-UsYHrg
p3486
aV_Tn9xzE06-7kDH2CzRg9YA
p3487
aVcKM7-GGHYgXwTG4qjZ8xAg
p3488
aVeMM-RgsmMGDxs353XpC3fw
p3489
aVWhXlv34bw0-112MqSPmCHw
p3490
aVzIY5QBp77eEiGHK8lAfWgg
p3491
aVWZDQqw960DaMWDyPbtRFtA
p3492
aVL_ibZRB6OAQCnQuA3jluyQ
p3493
aV5G9aIrRiCD4TZCC5j2D39A
p3494
aVst94oDmGS6qTMyt52tKSpg
p3495
aVZp2vJfHciG9IiXfmtH5Wdw
p3496
aV1tTC8S4d1gbs9HLGbSmDww
p3497
aVkzCG-KC3YVrQs7l-0d0b1w
p3498
aVMBK1Ew_P30AD6hFpKHqX6w
p3499
aVyGdO0huBvnAhyEX7fZO7og
p3500
aVwTjRn-n2wr6aLkNqFIuAGQ
p3501
aVb2ZukyGCS7xDlv0ZAlXdYg
p3502
aVsc__kdcFV4IcNTfBx1707w
p3503
aVffKC05KiJWMB1ppjOYs9Hg
p3504
aVXBVp2d7UVJRxc70QcjvKIA
p3505
aV8n6rB_miqJnUx6fMrweY_Q
p3506
aVZ9FR2A7RzBf1nxwRdlccJQ
p3507
aVHa9J5J_IVc_LQabC3tPLQQ
p3508
aV0YA3RpY5KXcezPXcjdfOGQ
p3509
aViKbtAQz2rUu99PgJvcx2Jg
p3510
aVhqineK2tQMxcZ9iQVMPlQA
p3511
aVF8p7jBnOJIcclFL8AEVt0g
p3512
aV6zm33qiJAMtjMSXGlfIFKA
p3513
aVrXULENMtBohv3485zqG0XA
p3514
aVzFI3KgNgBxVVZIjICzMMoA
p3515
aVJ9f-9Prw2YVM-fiZqv2fmQ
p3516
aVmPautiUsJGa4EsyY4ZCAqQ
p3517
aVx8-MzrVwJCwzqoACL21AJw
p3518
aVAhmCLltQ3lLzS7kotgiVOg
p3519
aVx8lqSZH33vZ6WM1gtdJvog
p3520
aV92KZBnzEki_70Dh_IB_Vkg
p3521
aVPdDpIGwBZoTYzOVasT-WuA
p3522
aV8iVd6gMWKGGU9SL55B4vjg
p3523
aVmMzag04MJ2yH5d_SySdoBQ
p3524
aV49sbCG7F2jvqJsfG6-N8Rw
p3525
aV7hiJOyqQ14u6IkYQ40SQUg
p3526
aVCP7TRCpeBr1sTtWqcfRHxQ
p3527
aVysJo5Jdo29XOBCnKrbUKWg
p3528
aVlzlwUXzYMbobhrA3tgVmtA
p3529
aVusCGyfoTxOYOqygtI9orUA
p3530
aVFbycyr3KEjDQ4wO9AStmvQ
p3531
aV7CJfrkVqwq9mJqC5RRT3Bw
p3532
aVwKlH90YB5RYFvJ8N3pstVw
p3533
aVgNMkHi3V_YZLZihhwYFPCg
p3534
aVmmvVocwFHyzNbCtYd1EH4w
p3535
aVi7CzT5ncBc7Pgt1R6quOqg
p3536
aVS8VRQCBrbZI04zjCOc1RAA
p3537
aVWE7UsbkilPeI8nw9ODnD-g
p3538
aV0aT7sqTIIv5zMApt4p4VWQ
p3539
aVrzjn_B6bxPwyFqUcpu98gQ
p3540
aVjnxt9D-rkZ3j2Qg4Afux3w
p3541
aVqME1CvFxSrhqE6-YGcp3Rw
p3542
aVQuh8Fjutyw15B6ZGZEf2gA
p3543
aVa2ACZqoFUxxd-rXsAac2MQ
p3544
aVQGPQp5VsRcP5Ma0ekCgj2Q
p3545
aVvpwyL6NHm-pTWJ5IeJb9yw
p3546
aVYsQ4Abm2E7lozSvP3ZfVWw
p3547
aV1Kg2YIYlNjzYb8EEgvYUtA
p3548
aVUyEJouFTFxcmYaHouhSGFA
p3549
aVOsgTFouPbcrCDnt-byTdAw
p3550
aVheYShXdxU_RVoDcGGGkn5Q
p3551
aVUvfBeHic40rwnxFBvfAP5A
p3552
aVdMKrQ13oZHtrkHMSx4EpEQ
p3553
aVwp44-LcNJCUnle5JkVXkbw
p3554
aVhMTzciZhfmugG2EVAPANcg
p3555
aVruEXmCPwoZBTVOv6RCEZCg
p3556
aVLxffru6JZP-jbpkOV8x5pA
p3557
aVpTicp-twG6F1t8jzaoagAA
p3558
aVe6abKOxJ2CyEwXLq2tI-yQ
p3559
aVX0JIra66e1kLDraXKa2Ajg
p3560
aVUQlMO6GxFxpoIOWVnZUAkA
p3561
aVSXR6JtrHX518bEWLcqWkXA
p3562
aVSeQlCrKvyM2j8m_75gtouQ
p3563
aVX88w0XrUSIKue9Vuwtqs_g
p3564
aVC6jKwYmzHztO7OCex9j-YQ
p3565
aVd0aLkD3VQ3sijckod-oSDg
p3566
aVPjpkK-BEMOuAxrmqFVxg5A
p3567
aVhs5xdulRJqHZyITnEHpJhQ
p3568
aVPyNA7Ae9X2S4eFCA1vWWEA
p3569
aVFeYVr83ptxsLOAJJJri_Jg
p3570
aVp9rvoRXzEf7Y2nTaqnotxw
p3571
aVT9uRUpoontO6YX-GoM4UvA
p3572
aVE_IIblD1Vu9YSywrvs4vBw
p3573
aVJnRZbZ7E4VpCh83U56CPMA
p3574
aVodfX0wO7fOyqa8oobxh96w
p3575
aVY-vxPbvPKcaLiYa9ZBXoDg
p3576
aVbFBV-rYwr6qKT7u0ovZhQg
p3577
aVL3ysePkSGjp11VIcmA3A-Q
p3578
aVqh1GCWP_2TKxevp3ZeMxag
p3579
aVvxFrGfeQCtc5AzPKkMHHgA
p3580
aVCERdu01pl1cGUyjjJcIFPQ
p3581
aVNqh7vzrne2mFFvlhjlPMFQ
p3582
aVi23WPOXuEq9iInAlOiNkIw
p3583
aVuh5dMhIZygTzXEvn5K10jg
p3584
aV6pKR-h3KN7AwgGOOYBbE2A
p3585
aVOPcGFLP_mRt9yvgP3ALXOQ
p3586
aVaSDQk0wjskLdQRFg2TBt_A
p3587
aVAtk1wlFBAjbxczwL0uwQVg
p3588
aV7cbi8zbO9vguU131QO90rg
p3589
aVzE7pCmT1P9-tFLHcoJ7jQw
p3590
aVtPyKZPLJ-Wrm4CrEJbxFuA
p3591
aVztbLCSo15CMqt18D6f0x5A
p3592
aVIam7tYWhssw_rscSBkeRIQ
p3593
aVWFM2FE0THduTbnjgGdGDLQ
p3594
aVzKwzMHiufpQ3bRAA7R7f8w
p3595
aV7I_xWHdCaH-CtZLQGkhsjg
p3596
aVK4kULMcPWitiKAwmk90dTA
p3597
aV8mcg3eCoh69WqaKKZZF98w
p3598
aVdulPV3NFShqR-lla6NHkvA
p3599
aVYPrFKB9D9bvhVd9LeDiJqg
p3600
aVda62X2tpj9tF0olWTigjBg
p3601
aV0X3tBvAUGUUDQJ9e5cUXrQ
p3602
aV27m3lsK3LpZm5XeGM4oVNw
p3603
aVrtj550X5w4tDWcTE8oAgew
p3604
aV8n13xwvvcuZUylr-y3eNMg
p3605
aV8kL_Z36p2HtSe6-lh0naEQ
p3606
aV_Qund-w4OI9StNm8P-rk1w
p3607
aV_7nELtYw3n2DzMN8252lhQ
p3608
aVZPVhjltJcQ-YnaoV-h-FeA
p3609
aVkDqgPRL75KG4lBxJsYUJlw
p3610
aVTsCq0UqOrKJ_ZJx7KKwKkA
p3611
aVihfRQ2MMIrsj9a5fwXp5hw
p3612
aVqV3z3lBATCdLgV7VslQ-hA
p3613
aVi851zomQeoY7gbrkFcvM7Q
p3614
aVHiHUTSxpyKhQqLFti3Xnzw
p3615
aVvu8N7IKK8HC0a0omYvtPpQ
p3616
aVChr3YCuvt2mD-BHgqeo-OA
p3617
aV3dyO9LrC9x-qJ2ZpbL9FZA
p3618
aVJMp6kPOrnBp9HC_4SRbarg
p3619
aV497iuIdzSZqEVZ_iTnp-Jg
p3620
aV4LLNNwkveVoH1m6z_9jLGQ
p3621
aVebDtlHODMCNmV1PrdNXKnA
p3622
aV_FH3osvpPRnMv-K2u6ZM3w
p3623
aV3NMrUGyQ9tTaDNDS2H2CZQ
p3624
aVXjwgMrBeBeOKQTYiXfRYLQ
p3625
aVnmBU1vK_3pkF08guLEoUjA
p3626
aVR5SvHm0lJf3hlI9R-TTyAQ
p3627
aVPJ-l-Le8_I4nPomX18M2AQ
p3628
aVgvL5fxzdrRxkS1xnis5RPA
p3629
aVV9ALGxjWDwxD93Sklth1YA
p3630
aVi17-RGooGWIad0y5YtaBtQ
p3631
aVkGGsHP9mfcxtofiswy7ItQ
p3632
aVmKoi3QV2d45Qm3iWt1aa3w
p3633
aVEaJefde5yMAMKmQ_P3Kr9w
p3634
aVybd0nXoNpGIlkL9bRChs3A
p3635
aVQ1WoqmmvoyWC3b6esLNyCQ
p3636
aVMKd_EUD0PG__cOfIbeqYAg
p3637
aVvEtE2CTl3rrDpTC20RUisQ
p3638
aVqpm0gm7SdsY2LnvXzQb_uw
p3639
aVFxdlM_hQbvawncbudVf99g
p3640
aVpL-Tr6y5hvWG_Ngbzg47DA
p3641
aVVBhPgceaKWOXT71d3Jp38w
p3642
aVv2gPWZrBYvD6m78fu4mnCA
p3643
aVYh-3IjAFCgq1Ubtdo9TDcw
p3644
a.